
task_scheduler.elf:     file format elf32-littlearm

Sections:
Idx Name          Size      VMA       LMA       File off  Algn
  0 .isr_vector   00000188  08000000  08000000  00001000  2**0
                  CONTENTS, ALLOC, LOAD, READONLY, DATA
  1 .text         00002428  08000190  08000190  00001190  2**4
                  CONTENTS, ALLOC, LOAD, READONLY, CODE
  2 .rodata       000000e4  080025b8  080025b8  000035b8  2**2
                  CONTENTS, ALLOC, LOAD, READONLY, DATA
  3 .ARM.extab    00000000  0800269c  0800269c  0000406c  2**0
                  CONTENTS, READONLY
  4 .ARM          00000008  0800269c  0800269c  0000369c  2**2
                  CONTENTS, ALLOC, LOAD, READONLY, DATA
  5 .preinit_array 00000000  080026a4  080026a4  0000406c  2**0
                  CONTENTS, ALLOC, LOAD, DATA
  6 .init_array   00000004  080026a4  080026a4  000036a4  2**2
                  CONTENTS, ALLOC, LOAD, READONLY, DATA
  7 .fini_array   00000004  080026a8  080026a8  000036a8  2**2
                  CONTENTS, ALLOC, LOAD, READONLY, DATA
  8 .data         0000006c  20000000  080026ac  00004000  2**2
                  CONTENTS, ALLOC, LOAD, DATA
  9 .ccmram       00000000  10000000  10000000  0000406c  2**0
                  CONTENTS
 10 .bss          0000017c  2000006c  2000006c  0000406c  2**2
                  ALLOC
 11 ._user_heap_stack 00000600  200001e8  200001e8  0000406c  2**0
                  ALLOC
 12 .ARM.attributes 00000030  00000000  00000000  0000406c  2**0
                  CONTENTS, READONLY
 13 .comment      00000026  00000000  00000000  0000409c  2**0
                  CONTENTS, READONLY
 14 .debug_info   000121aa  00000000  00000000  000040c2  2**0
                  CONTENTS, READONLY, DEBUGGING, OCTETS
 15 .debug_abbrev 00004539  00000000  00000000  0001626c  2**0
                  CONTENTS, READONLY, DEBUGGING, OCTETS
 16 .debug_aranges 000005d8  00000000  00000000  0001a7a8  2**3
                  CONTENTS, READONLY, DEBUGGING, OCTETS
 17 .debug_rnglists 00000395  00000000  00000000  0001ad80  2**0
                  CONTENTS, READONLY, DEBUGGING, OCTETS
 18 .debug_macro  00002c66  00000000  00000000  0001b115  2**0
                  CONTENTS, READONLY, DEBUGGING, OCTETS
 19 .debug_line   000067d9  00000000  00000000  0001dd7b  2**0
                  CONTENTS, READONLY, DEBUGGING, OCTETS
 20 .debug_str    0000ac41  00000000  00000000  00024554  2**0
                  CONTENTS, READONLY, DEBUGGING, OCTETS
 21 .debug_frame  00000f1c  00000000  00000000  0002f198  2**2
                  CONTENTS, READONLY, DEBUGGING, OCTETS
 22 .debug_line_str 0000012a  00000000  00000000  000300b4  2**0
                  CONTENTS, READONLY, DEBUGGING, OCTETS
 23 .debug_loclists 00002feb  00000000  00000000  000301de  2**0
                  CONTENTS, READONLY, DEBUGGING, OCTETS

Disassembly of section .text:

08000190 <deregister_tm_clones>:
 8000190:	4803      	ldr	r0, [pc, #12]	@ (80001a0 <deregister_tm_clones+0x10>)
 8000192:	4b04      	ldr	r3, [pc, #16]	@ (80001a4 <deregister_tm_clones+0x14>)
 8000194:	4283      	cmp	r3, r0
 8000196:	d002      	beq.n	800019e <deregister_tm_clones+0xe>
 8000198:	4b03      	ldr	r3, [pc, #12]	@ (80001a8 <deregister_tm_clones+0x18>)
 800019a:	b103      	cbz	r3, 800019e <deregister_tm_clones+0xe>
 800019c:	4718      	bx	r3
 800019e:	4770      	bx	lr
 80001a0:	2000006c 	.word	0x2000006c
 80001a4:	2000006c 	.word	0x2000006c
 80001a8:	00000000 	.word	0x00000000

080001ac <register_tm_clones>:
 80001ac:	4805      	ldr	r0, [pc, #20]	@ (80001c4 <register_tm_clones+0x18>)
 80001ae:	4b06      	ldr	r3, [pc, #24]	@ (80001c8 <register_tm_clones+0x1c>)
 80001b0:	1a1b      	subs	r3, r3, r0
 80001b2:	0fd9      	lsrs	r1, r3, #31
 80001b4:	eb01 01a3 	add.w	r1, r1, r3, asr #2
 80001b8:	1049      	asrs	r1, r1, #1
 80001ba:	d002      	beq.n	80001c2 <register_tm_clones+0x16>
 80001bc:	4b03      	ldr	r3, [pc, #12]	@ (80001cc <register_tm_clones+0x20>)
 80001be:	b103      	cbz	r3, 80001c2 <register_tm_clones+0x16>
 80001c0:	4718      	bx	r3
 80001c2:	4770      	bx	lr
 80001c4:	2000006c 	.word	0x2000006c
 80001c8:	2000006c 	.word	0x2000006c
 80001cc:	00000000 	.word	0x00000000

080001d0 <__do_global_dtors_aux>:
 80001d0:	b510      	push	{r4, lr}
 80001d2:	4c06      	ldr	r4, [pc, #24]	@ (80001ec <__do_global_dtors_aux+0x1c>)
 80001d4:	7823      	ldrb	r3, [r4, #0]
 80001d6:	b943      	cbnz	r3, 80001ea <__do_global_dtors_aux+0x1a>
 80001d8:	f7ff ffda 	bl	8000190 <deregister_tm_clones>
 80001dc:	4b04      	ldr	r3, [pc, #16]	@ (80001f0 <__do_global_dtors_aux+0x20>)
 80001de:	b113      	cbz	r3, 80001e6 <__do_global_dtors_aux+0x16>
 80001e0:	4804      	ldr	r0, [pc, #16]	@ (80001f4 <__do_global_dtors_aux+0x24>)
 80001e2:	f3af 8000 	nop.w
 80001e6:	2301      	movs	r3, #1
 80001e8:	7023      	strb	r3, [r4, #0]
 80001ea:	bd10      	pop	{r4, pc}
 80001ec:	2000006c 	.word	0x2000006c
 80001f0:	00000000 	.word	0x00000000
 80001f4:	080025a0 	.word	0x080025a0

080001f8 <frame_dummy>:
 80001f8:	b508      	push	{r3, lr}
 80001fa:	4b04      	ldr	r3, [pc, #16]	@ (800020c <frame_dummy+0x14>)
 80001fc:	b11b      	cbz	r3, 8000206 <frame_dummy+0xe>
 80001fe:	4904      	ldr	r1, [pc, #16]	@ (8000210 <frame_dummy+0x18>)
 8000200:	4804      	ldr	r0, [pc, #16]	@ (8000214 <frame_dummy+0x1c>)
 8000202:	f3af 8000 	nop.w
 8000206:	e8bd 4008 	ldmia.w	sp!, {r3, lr}
 800020a:	e7cf      	b.n	80001ac <register_tm_clones>
 800020c:	00000000 	.word	0x00000000
 8000210:	20000070 	.word	0x20000070
 8000214:	080025a0 	.word	0x080025a0

08000218 <__libc_init_array>:
 8000218:	b570      	push	{r4, r5, r6, lr}
 800021a:	4b0f      	ldr	r3, [pc, #60]	@ (8000258 <__libc_init_array+0x40>)
 800021c:	4d0f      	ldr	r5, [pc, #60]	@ (800025c <__libc_init_array+0x44>)
 800021e:	42ab      	cmp	r3, r5
 8000220:	eba3 0605 	sub.w	r6, r3, r5
 8000224:	d007      	beq.n	8000236 <__libc_init_array+0x1e>
 8000226:	10b6      	asrs	r6, r6, #2
 8000228:	2400      	movs	r4, #0
 800022a:	f855 3b04 	ldr.w	r3, [r5], #4
 800022e:	3401      	adds	r4, #1
 8000230:	4798      	blx	r3
 8000232:	42a6      	cmp	r6, r4
 8000234:	d8f9      	bhi.n	800022a <__libc_init_array+0x12>
 8000236:	f002 f9b3 	bl	80025a0 <_init>
 800023a:	4d09      	ldr	r5, [pc, #36]	@ (8000260 <__libc_init_array+0x48>)
 800023c:	4b09      	ldr	r3, [pc, #36]	@ (8000264 <__libc_init_array+0x4c>)
 800023e:	1b5e      	subs	r6, r3, r5
 8000240:	42ab      	cmp	r3, r5
 8000242:	ea4f 06a6 	mov.w	r6, r6, asr #2
 8000246:	d006      	beq.n	8000256 <__libc_init_array+0x3e>
 8000248:	2400      	movs	r4, #0
 800024a:	f855 3b04 	ldr.w	r3, [r5], #4
 800024e:	3401      	adds	r4, #1
 8000250:	4798      	blx	r3
 8000252:	42a6      	cmp	r6, r4
 8000254:	d8f9      	bhi.n	800024a <__libc_init_array+0x32>
 8000256:	bd70      	pop	{r4, r5, r6, pc}
 8000258:	080026a4 	.word	0x080026a4
 800025c:	080026a4 	.word	0x080026a4
 8000260:	080026a4 	.word	0x080026a4
 8000264:	080026a8 	.word	0x080026a8

08000268 <_puts_r>:
 8000268:	6a03      	ldr	r3, [r0, #32]
 800026a:	e92d 41f0 	stmdb	sp!, {r4, r5, r6, r7, r8, lr}
 800026e:	6884      	ldr	r4, [r0, #8]
 8000270:	4680      	mov	r8, r0
 8000272:	460e      	mov	r6, r1
 8000274:	2b00      	cmp	r3, #0
 8000276:	d03b      	beq.n	80002f0 <_puts_r+0x88>
 8000278:	89a3      	ldrh	r3, [r4, #12]
 800027a:	071b      	lsls	r3, r3, #28
 800027c:	d517      	bpl.n	80002ae <_puts_r+0x46>
 800027e:	6923      	ldr	r3, [r4, #16]
 8000280:	b1ab      	cbz	r3, 80002ae <_puts_r+0x46>
 8000282:	3e01      	subs	r6, #1
 8000284:	68a3      	ldr	r3, [r4, #8]
 8000286:	f816 5f01 	ldrb.w	r5, [r6, #1]!
 800028a:	3b01      	subs	r3, #1
 800028c:	60a3      	str	r3, [r4, #8]
 800028e:	b1ed      	cbz	r5, 80002cc <_puts_r+0x64>
 8000290:	2b00      	cmp	r3, #0
 8000292:	da07      	bge.n	80002a4 <_puts_r+0x3c>
 8000294:	69a7      	ldr	r7, [r4, #24]
 8000296:	429f      	cmp	r7, r3
 8000298:	4622      	mov	r2, r4
 800029a:	4629      	mov	r1, r5
 800029c:	4640      	mov	r0, r8
 800029e:	dc10      	bgt.n	80002c2 <_puts_r+0x5a>
 80002a0:	2d0a      	cmp	r5, #10
 80002a2:	d00e      	beq.n	80002c2 <_puts_r+0x5a>
 80002a4:	6823      	ldr	r3, [r4, #0]
 80002a6:	1c5a      	adds	r2, r3, #1
 80002a8:	6022      	str	r2, [r4, #0]
 80002aa:	701d      	strb	r5, [r3, #0]
 80002ac:	e7ea      	b.n	8000284 <_puts_r+0x1c>
 80002ae:	4621      	mov	r1, r4
 80002b0:	4640      	mov	r0, r8
 80002b2:	f000 fb8b 	bl	80009cc <__swsetup_r>
 80002b6:	2800      	cmp	r0, #0
 80002b8:	d0e3      	beq.n	8000282 <_puts_r+0x1a>
 80002ba:	f04f 30ff 	mov.w	r0, #4294967295	@ 0xffffffff
 80002be:	e8bd 81f0 	ldmia.w	sp!, {r4, r5, r6, r7, r8, pc}
 80002c2:	f000 febd 	bl	8001040 <__swbuf_r>
 80002c6:	3001      	adds	r0, #1
 80002c8:	d1dc      	bne.n	8000284 <_puts_r+0x1c>
 80002ca:	e7f6      	b.n	80002ba <_puts_r+0x52>
 80002cc:	2b00      	cmp	r3, #0
 80002ce:	da09      	bge.n	80002e4 <_puts_r+0x7c>
 80002d0:	4622      	mov	r2, r4
 80002d2:	210a      	movs	r1, #10
 80002d4:	4640      	mov	r0, r8
 80002d6:	f000 feb3 	bl	8001040 <__swbuf_r>
 80002da:	3001      	adds	r0, #1
 80002dc:	d0ed      	beq.n	80002ba <_puts_r+0x52>
 80002de:	200a      	movs	r0, #10
 80002e0:	e8bd 81f0 	ldmia.w	sp!, {r4, r5, r6, r7, r8, pc}
 80002e4:	6823      	ldr	r3, [r4, #0]
 80002e6:	220a      	movs	r2, #10
 80002e8:	1c59      	adds	r1, r3, #1
 80002ea:	6021      	str	r1, [r4, #0]
 80002ec:	701a      	strb	r2, [r3, #0]
 80002ee:	e7f6      	b.n	80002de <_puts_r+0x76>
 80002f0:	f000 f8f4 	bl	80004dc <__sinit>
 80002f4:	e7c0      	b.n	8000278 <_puts_r+0x10>
 80002f6:	bf00      	nop

080002f8 <puts>:
 80002f8:	4b02      	ldr	r3, [pc, #8]	@ (8000304 <puts+0xc>)
 80002fa:	4601      	mov	r1, r0
 80002fc:	6818      	ldr	r0, [r3, #0]
 80002fe:	f7ff bfb3 	b.w	8000268 <_puts_r>
 8000302:	bf00      	nop
 8000304:	2000000c 	.word	0x2000000c

08000308 <__fp_lock>:
 8000308:	2000      	movs	r0, #0
 800030a:	4770      	bx	lr

0800030c <stdio_exit_handler>:
 800030c:	4a02      	ldr	r2, [pc, #8]	@ (8000318 <stdio_exit_handler+0xc>)
 800030e:	4903      	ldr	r1, [pc, #12]	@ (800031c <stdio_exit_handler+0x10>)
 8000310:	4803      	ldr	r0, [pc, #12]	@ (8000320 <stdio_exit_handler+0x14>)
 8000312:	f000 bb39 	b.w	8000988 <_fwalk_sglue>
 8000316:	bf00      	nop
 8000318:	20000000 	.word	0x20000000
 800031c:	080006f5 	.word	0x080006f5
 8000320:	20000010 	.word	0x20000010

08000324 <cleanup_stdio>:
 8000324:	4b0c      	ldr	r3, [pc, #48]	@ (8000358 <cleanup_stdio+0x34>)
 8000326:	6841      	ldr	r1, [r0, #4]
 8000328:	4299      	cmp	r1, r3
 800032a:	b510      	push	{r4, lr}
 800032c:	4604      	mov	r4, r0
 800032e:	d001      	beq.n	8000334 <cleanup_stdio+0x10>
 8000330:	f000 f9e0 	bl	80006f4 <_fflush_r>
 8000334:	68a1      	ldr	r1, [r4, #8]
 8000336:	4b09      	ldr	r3, [pc, #36]	@ (800035c <cleanup_stdio+0x38>)
 8000338:	4299      	cmp	r1, r3
 800033a:	d002      	beq.n	8000342 <cleanup_stdio+0x1e>
 800033c:	4620      	mov	r0, r4
 800033e:	f000 f9d9 	bl	80006f4 <_fflush_r>
 8000342:	68e1      	ldr	r1, [r4, #12]
 8000344:	4b06      	ldr	r3, [pc, #24]	@ (8000360 <cleanup_stdio+0x3c>)
 8000346:	4299      	cmp	r1, r3
 8000348:	d004      	beq.n	8000354 <cleanup_stdio+0x30>
 800034a:	4620      	mov	r0, r4
 800034c:	e8bd 4010 	ldmia.w	sp!, {r4, lr}
 8000350:	f000 b9d0 	b.w	80006f4 <_fflush_r>
 8000354:	bd10      	pop	{r4, pc}
 8000356:	bf00      	nop
 8000358:	20000088 	.word	0x20000088
 800035c:	200000f0 	.word	0x200000f0
 8000360:	20000158 	.word	0x20000158

08000364 <__fp_unlock>:
 8000364:	2000      	movs	r0, #0
 8000366:	4770      	bx	lr

08000368 <global_stdio_init.part.0>:
 8000368:	e92d 43f8 	stmdb	sp!, {r3, r4, r5, r6, r7, r8, r9, lr}
 800036c:	4c2a      	ldr	r4, [pc, #168]	@ (8000418 <global_stdio_init.part.0+0xb0>)
 800036e:	492b      	ldr	r1, [pc, #172]	@ (800041c <global_stdio_init.part.0+0xb4>)
 8000370:	f8df 90bc 	ldr.w	r9, [pc, #188]	@ 8000430 <global_stdio_init.part.0+0xc8>
 8000374:	f8df 80bc 	ldr.w	r8, [pc, #188]	@ 8000434 <global_stdio_init.part.0+0xcc>
 8000378:	4f29      	ldr	r7, [pc, #164]	@ (8000420 <global_stdio_init.part.0+0xb8>)
 800037a:	f8c4 1138 	str.w	r1, [r4, #312]	@ 0x138
 800037e:	2500      	movs	r5, #0
 8000380:	2304      	movs	r3, #4
 8000382:	2208      	movs	r2, #8
 8000384:	4629      	mov	r1, r5
 8000386:	f104 005c 	add.w	r0, r4, #92	@ 0x5c
 800038a:	4e26      	ldr	r6, [pc, #152]	@ (8000424 <global_stdio_init.part.0+0xbc>)
 800038c:	60e3      	str	r3, [r4, #12]
 800038e:	e9c4 5500 	strd	r5, r5, [r4]
 8000392:	e9c4 5504 	strd	r5, r5, [r4, #16]
 8000396:	60a5      	str	r5, [r4, #8]
 8000398:	6665      	str	r5, [r4, #100]	@ 0x64
 800039a:	61a5      	str	r5, [r4, #24]
 800039c:	f000 f8c6 	bl	800052c <memset>
 80003a0:	4b21      	ldr	r3, [pc, #132]	@ (8000428 <global_stdio_init.part.0+0xc0>)
 80003a2:	6763      	str	r3, [r4, #116]	@ 0x74
 80003a4:	2208      	movs	r2, #8
 80003a6:	4629      	mov	r1, r5
 80003a8:	f104 00c4 	add.w	r0, r4, #196	@ 0xc4
 80003ac:	e9c4 4908 	strd	r4, r9, [r4, #32]
 80003b0:	e9c4 870a 	strd	r8, r7, [r4, #40]	@ 0x28
 80003b4:	e9c4 551a 	strd	r5, r5, [r4, #104]	@ 0x68
 80003b8:	e9c4 551e 	strd	r5, r5, [r4, #120]	@ 0x78
 80003bc:	6725      	str	r5, [r4, #112]	@ 0x70
 80003be:	f8c4 50cc 	str.w	r5, [r4, #204]	@ 0xcc
 80003c2:	f8c4 5080 	str.w	r5, [r4, #128]	@ 0x80
 80003c6:	6326      	str	r6, [r4, #48]	@ 0x30
 80003c8:	f000 f8b0 	bl	800052c <memset>
 80003cc:	4b17      	ldr	r3, [pc, #92]	@ (800042c <global_stdio_init.part.0+0xc4>)
 80003ce:	f8c4 30dc 	str.w	r3, [r4, #220]	@ 0xdc
 80003d2:	4629      	mov	r1, r5
 80003d4:	f104 0368 	add.w	r3, r4, #104	@ 0x68
 80003d8:	2208      	movs	r2, #8
 80003da:	f504 7096 	add.w	r0, r4, #300	@ 0x12c
 80003de:	f8c4 3088 	str.w	r3, [r4, #136]	@ 0x88
 80003e2:	e9c4 9823 	strd	r9, r8, [r4, #140]	@ 0x8c
 80003e6:	e9c4 7625 	strd	r7, r6, [r4, #148]	@ 0x94
 80003ea:	e9c4 5534 	strd	r5, r5, [r4, #208]	@ 0xd0
 80003ee:	e9c4 5538 	strd	r5, r5, [r4, #224]	@ 0xe0
 80003f2:	f8c4 50d8 	str.w	r5, [r4, #216]	@ 0xd8
 80003f6:	f8c4 5134 	str.w	r5, [r4, #308]	@ 0x134
 80003fa:	f8c4 50e8 	str.w	r5, [r4, #232]	@ 0xe8
 80003fe:	f000 f895 	bl	800052c <memset>
 8000402:	f104 03d0 	add.w	r3, r4, #208	@ 0xd0
 8000406:	e9c4 983d 	strd	r9, r8, [r4, #244]	@ 0xf4
 800040a:	e9c4 763f 	strd	r7, r6, [r4, #252]	@ 0xfc
 800040e:	f8c4 30f0 	str.w	r3, [r4, #240]	@ 0xf0
 8000412:	e8bd 83f8 	ldmia.w	sp!, {r3, r4, r5, r6, r7, r8, r9, pc}
 8000416:	bf00      	nop
 8000418:	20000088 	.word	0x20000088
 800041c:	0800030d 	.word	0x0800030d
 8000420:	0800116d 	.word	0x0800116d
 8000424:	08001191 	.word	0x08001191
 8000428:	00010009 	.word	0x00010009
 800042c:	00020012 	.word	0x00020012
 8000430:	08001105 	.word	0x08001105
 8000434:	0800112d 	.word	0x0800112d

08000438 <__sfp>:
 8000438:	b5f8      	push	{r3, r4, r5, r6, r7, lr}
 800043a:	4b25      	ldr	r3, [pc, #148]	@ (80004d0 <__sfp+0x98>)
 800043c:	f8d3 3138 	ldr.w	r3, [r3, #312]	@ 0x138
 8000440:	4606      	mov	r6, r0
 8000442:	2b00      	cmp	r3, #0
 8000444:	d03c      	beq.n	80004c0 <__sfp+0x88>
 8000446:	4f23      	ldr	r7, [pc, #140]	@ (80004d4 <__sfp+0x9c>)
 8000448:	e9d7 3401 	ldrd	r3, r4, [r7, #4]
 800044c:	3b01      	subs	r3, #1
 800044e:	d504      	bpl.n	800045a <__sfp+0x22>
 8000450:	e01d      	b.n	800048e <__sfp+0x56>
 8000452:	1c5a      	adds	r2, r3, #1
 8000454:	f104 0468 	add.w	r4, r4, #104	@ 0x68
 8000458:	d019      	beq.n	800048e <__sfp+0x56>
 800045a:	f9b4 500c 	ldrsh.w	r5, [r4, #12]
 800045e:	3b01      	subs	r3, #1
 8000460:	2d00      	cmp	r5, #0
 8000462:	d1f6      	bne.n	8000452 <__sfp+0x1a>
 8000464:	4b1c      	ldr	r3, [pc, #112]	@ (80004d8 <__sfp+0xa0>)
 8000466:	60e3      	str	r3, [r4, #12]
 8000468:	e9c4 5501 	strd	r5, r5, [r4, #4]
 800046c:	e9c4 5504 	strd	r5, r5, [r4, #16]
 8000470:	6665      	str	r5, [r4, #100]	@ 0x64
 8000472:	6025      	str	r5, [r4, #0]
 8000474:	61a5      	str	r5, [r4, #24]
 8000476:	2208      	movs	r2, #8
 8000478:	4629      	mov	r1, r5
 800047a:	f104 005c 	add.w	r0, r4, #92	@ 0x5c
 800047e:	f000 f855 	bl	800052c <memset>
 8000482:	e9c4 550d 	strd	r5, r5, [r4, #52]	@ 0x34
 8000486:	e9c4 5512 	strd	r5, r5, [r4, #72]	@ 0x48
 800048a:	4620      	mov	r0, r4
 800048c:	bdf8      	pop	{r3, r4, r5, r6, r7, pc}
 800048e:	683d      	ldr	r5, [r7, #0]
 8000490:	b10d      	cbz	r5, 8000496 <__sfp+0x5e>
 8000492:	462f      	mov	r7, r5
 8000494:	e7d8      	b.n	8000448 <__sfp+0x10>
 8000496:	f44f 71d6 	mov.w	r1, #428	@ 0x1ac
 800049a:	4630      	mov	r0, r6
 800049c:	f000 f996 	bl	80007cc <_malloc_r>
 80004a0:	4604      	mov	r4, r0
 80004a2:	b180      	cbz	r0, 80004c6 <__sfp+0x8e>
 80004a4:	2304      	movs	r3, #4
 80004a6:	e9c0 5300 	strd	r5, r3, [r0]
 80004aa:	300c      	adds	r0, #12
 80004ac:	4629      	mov	r1, r5
 80004ae:	60a0      	str	r0, [r4, #8]
 80004b0:	f44f 72d0 	mov.w	r2, #416	@ 0x1a0
 80004b4:	4625      	mov	r5, r4
 80004b6:	f000 f839 	bl	800052c <memset>
 80004ba:	603c      	str	r4, [r7, #0]
 80004bc:	462f      	mov	r7, r5
 80004be:	e7c3      	b.n	8000448 <__sfp+0x10>
 80004c0:	f7ff ff52 	bl	8000368 <global_stdio_init.part.0>
 80004c4:	e7bf      	b.n	8000446 <__sfp+0xe>
 80004c6:	230c      	movs	r3, #12
 80004c8:	6038      	str	r0, [r7, #0]
 80004ca:	6033      	str	r3, [r6, #0]
 80004cc:	e7dd      	b.n	800048a <__sfp+0x52>
 80004ce:	bf00      	nop
 80004d0:	20000088 	.word	0x20000088
 80004d4:	20000000 	.word	0x20000000
 80004d8:	ffff0001 	.word	0xffff0001

080004dc <__sinit>:
 80004dc:	6a03      	ldr	r3, [r0, #32]
 80004de:	b103      	cbz	r3, 80004e2 <__sinit+0x6>
 80004e0:	4770      	bx	lr
 80004e2:	4b04      	ldr	r3, [pc, #16]	@ (80004f4 <__sinit+0x18>)
 80004e4:	4a04      	ldr	r2, [pc, #16]	@ (80004f8 <__sinit+0x1c>)
 80004e6:	f8d3 3138 	ldr.w	r3, [r3, #312]	@ 0x138
 80004ea:	6202      	str	r2, [r0, #32]
 80004ec:	2b00      	cmp	r3, #0
 80004ee:	d1f7      	bne.n	80004e0 <__sinit+0x4>
 80004f0:	e73a      	b.n	8000368 <global_stdio_init.part.0>
 80004f2:	bf00      	nop
 80004f4:	20000088 	.word	0x20000088
 80004f8:	08000325 	.word	0x08000325

080004fc <__sfp_lock_acquire>:
 80004fc:	4770      	bx	lr
 80004fe:	bf00      	nop

08000500 <__sfp_lock_release>:
 8000500:	4770      	bx	lr
 8000502:	bf00      	nop

08000504 <__fp_lock_all>:
 8000504:	4a02      	ldr	r2, [pc, #8]	@ (8000510 <__fp_lock_all+0xc>)
 8000506:	4903      	ldr	r1, [pc, #12]	@ (8000514 <__fp_lock_all+0x10>)
 8000508:	2000      	movs	r0, #0
 800050a:	f000 ba3d 	b.w	8000988 <_fwalk_sglue>
 800050e:	bf00      	nop
 8000510:	20000000 	.word	0x20000000
 8000514:	08000309 	.word	0x08000309

08000518 <__fp_unlock_all>:
 8000518:	4a02      	ldr	r2, [pc, #8]	@ (8000524 <__fp_unlock_all+0xc>)
 800051a:	4903      	ldr	r1, [pc, #12]	@ (8000528 <__fp_unlock_all+0x10>)
 800051c:	2000      	movs	r0, #0
 800051e:	f000 ba33 	b.w	8000988 <_fwalk_sglue>
 8000522:	bf00      	nop
 8000524:	20000000 	.word	0x20000000
 8000528:	08000365 	.word	0x08000365

0800052c <memset>:
 800052c:	0783      	lsls	r3, r0, #30
 800052e:	b530      	push	{r4, r5, lr}
 8000530:	d047      	beq.n	80005c2 <memset+0x96>
 8000532:	1e54      	subs	r4, r2, #1
 8000534:	2a00      	cmp	r2, #0
 8000536:	d03e      	beq.n	80005b6 <memset+0x8a>
 8000538:	b2ca      	uxtb	r2, r1
 800053a:	4603      	mov	r3, r0
 800053c:	e001      	b.n	8000542 <memset+0x16>
 800053e:	3c01      	subs	r4, #1
 8000540:	d339      	bcc.n	80005b6 <memset+0x8a>
 8000542:	f803 2b01 	strb.w	r2, [r3], #1
 8000546:	079d      	lsls	r5, r3, #30
 8000548:	d1f9      	bne.n	800053e <memset+0x12>
 800054a:	2c03      	cmp	r4, #3
 800054c:	d92c      	bls.n	80005a8 <memset+0x7c>
 800054e:	b2cd      	uxtb	r5, r1
 8000550:	eb05 2505 	add.w	r5, r5, r5, lsl #8
 8000554:	2c0f      	cmp	r4, #15
 8000556:	eb05 4505 	add.w	r5, r5, r5, lsl #16
 800055a:	d935      	bls.n	80005c8 <memset+0x9c>
 800055c:	f1a4 0210 	sub.w	r2, r4, #16
 8000560:	f022 0c0f 	bic.w	ip, r2, #15
 8000564:	f103 0e10 	add.w	lr, r3, #16
 8000568:	44e6      	add	lr, ip
 800056a:	ea4f 1c12 	mov.w	ip, r2, lsr #4
 800056e:	461a      	mov	r2, r3
 8000570:	e9c2 5500 	strd	r5, r5, [r2]
 8000574:	e9c2 5502 	strd	r5, r5, [r2, #8]
 8000578:	3210      	adds	r2, #16
 800057a:	4572      	cmp	r2, lr
 800057c:	d1f8      	bne.n	8000570 <memset+0x44>
 800057e:	f10c 0201 	add.w	r2, ip, #1
 8000582:	f014 0f0c 	tst.w	r4, #12
 8000586:	eb03 1202 	add.w	r2, r3, r2, lsl #4
 800058a:	f004 0c0f 	and.w	ip, r4, #15
 800058e:	d013      	beq.n	80005b8 <memset+0x8c>
 8000590:	f1ac 0304 	sub.w	r3, ip, #4
 8000594:	f023 0303 	bic.w	r3, r3, #3
 8000598:	3304      	adds	r3, #4
 800059a:	4413      	add	r3, r2
 800059c:	f842 5b04 	str.w	r5, [r2], #4
 80005a0:	4293      	cmp	r3, r2
 80005a2:	d1fb      	bne.n	800059c <memset+0x70>
 80005a4:	f00c 0403 	and.w	r4, ip, #3
 80005a8:	b12c      	cbz	r4, 80005b6 <memset+0x8a>
 80005aa:	b2c9      	uxtb	r1, r1
 80005ac:	441c      	add	r4, r3
 80005ae:	f803 1b01 	strb.w	r1, [r3], #1
 80005b2:	42a3      	cmp	r3, r4
 80005b4:	d1fb      	bne.n	80005ae <memset+0x82>
 80005b6:	bd30      	pop	{r4, r5, pc}
 80005b8:	4664      	mov	r4, ip
 80005ba:	4613      	mov	r3, r2
 80005bc:	2c00      	cmp	r4, #0
 80005be:	d1f4      	bne.n	80005aa <memset+0x7e>
 80005c0:	e7f9      	b.n	80005b6 <memset+0x8a>
 80005c2:	4603      	mov	r3, r0
 80005c4:	4614      	mov	r4, r2
 80005c6:	e7c0      	b.n	800054a <memset+0x1e>
 80005c8:	461a      	mov	r2, r3
 80005ca:	46a4      	mov	ip, r4
 80005cc:	e7e0      	b.n	8000590 <memset+0x64>
 80005ce:	bf00      	nop

080005d0 <__sflush_r>:
 80005d0:	f9b1 300c 	ldrsh.w	r3, [r1, #12]
 80005d4:	e92d 41f0 	stmdb	sp!, {r4, r5, r6, r7, r8, lr}
 80005d8:	071e      	lsls	r6, r3, #28
 80005da:	460c      	mov	r4, r1
 80005dc:	4680      	mov	r8, r0
 80005de:	d43d      	bmi.n	800065c <__sflush_r+0x8c>
 80005e0:	684a      	ldr	r2, [r1, #4]
 80005e2:	2a00      	cmp	r2, #0
 80005e4:	dd56      	ble.n	8000694 <__sflush_r+0xc4>
 80005e6:	6ae5      	ldr	r5, [r4, #44]	@ 0x2c
 80005e8:	2d00      	cmp	r5, #0
 80005ea:	d034      	beq.n	8000656 <__sflush_r+0x86>
 80005ec:	2200      	movs	r2, #0
 80005ee:	f8d8 6000 	ldr.w	r6, [r8]
 80005f2:	f8c8 2000 	str.w	r2, [r8]
 80005f6:	f413 5280 	ands.w	r2, r3, #4096	@ 0x1000
 80005fa:	6a21      	ldr	r1, [r4, #32]
 80005fc:	d157      	bne.n	80006ae <__sflush_r+0xde>
 80005fe:	2301      	movs	r3, #1
 8000600:	4640      	mov	r0, r8
 8000602:	47a8      	blx	r5
 8000604:	1c45      	adds	r5, r0, #1
 8000606:	4602      	mov	r2, r0
 8000608:	d066      	beq.n	80006d8 <__sflush_r+0x108>
 800060a:	f9b4 300c 	ldrsh.w	r3, [r4, #12]
 800060e:	6ae5      	ldr	r5, [r4, #44]	@ 0x2c
 8000610:	6a21      	ldr	r1, [r4, #32]
 8000612:	0758      	lsls	r0, r3, #29
 8000614:	d505      	bpl.n	8000622 <__sflush_r+0x52>
 8000616:	6863      	ldr	r3, [r4, #4]
 8000618:	1ad2      	subs	r2, r2, r3
 800061a:	6b63      	ldr	r3, [r4, #52]	@ 0x34
 800061c:	b10b      	cbz	r3, 8000622 <__sflush_r+0x52>
 800061e:	6c23      	ldr	r3, [r4, #64]	@ 0x40
 8000620:	1ad2      	subs	r2, r2, r3
 8000622:	2300      	movs	r3, #0
 8000624:	4640      	mov	r0, r8
 8000626:	47a8      	blx	r5
 8000628:	1c43      	adds	r3, r0, #1
 800062a:	d042      	beq.n	80006b2 <__sflush_r+0xe2>
 800062c:	2300      	movs	r3, #0
 800062e:	6063      	str	r3, [r4, #4]
 8000630:	6923      	ldr	r3, [r4, #16]
 8000632:	6023      	str	r3, [r4, #0]
 8000634:	89a3      	ldrh	r3, [r4, #12]
 8000636:	04df      	lsls	r7, r3, #19
 8000638:	d500      	bpl.n	800063c <__sflush_r+0x6c>
 800063a:	6560      	str	r0, [r4, #84]	@ 0x54
 800063c:	6b61      	ldr	r1, [r4, #52]	@ 0x34
 800063e:	f8c8 6000 	str.w	r6, [r8]
 8000642:	b141      	cbz	r1, 8000656 <__sflush_r+0x86>
 8000644:	f104 0344 	add.w	r3, r4, #68	@ 0x44
 8000648:	4299      	cmp	r1, r3
 800064a:	d002      	beq.n	8000652 <__sflush_r+0x82>
 800064c:	4640      	mov	r0, r8
 800064e:	f000 f93d 	bl	80008cc <_free_r>
 8000652:	2300      	movs	r3, #0
 8000654:	6363      	str	r3, [r4, #52]	@ 0x34
 8000656:	2000      	movs	r0, #0
 8000658:	e8bd 81f0 	ldmia.w	sp!, {r4, r5, r6, r7, r8, pc}
 800065c:	690e      	ldr	r6, [r1, #16]
 800065e:	2e00      	cmp	r6, #0
 8000660:	d0f9      	beq.n	8000656 <__sflush_r+0x86>
 8000662:	079b      	lsls	r3, r3, #30
 8000664:	680d      	ldr	r5, [r1, #0]
 8000666:	bf08      	it	eq
 8000668:	694b      	ldreq	r3, [r1, #20]
 800066a:	600e      	str	r6, [r1, #0]
 800066c:	bf18      	it	ne
 800066e:	2300      	movne	r3, #0
 8000670:	1bad      	subs	r5, r5, r6
 8000672:	608b      	str	r3, [r1, #8]
 8000674:	e00b      	b.n	800068e <__sflush_r+0xbe>
 8000676:	462b      	mov	r3, r5
 8000678:	4632      	mov	r2, r6
 800067a:	6a21      	ldr	r1, [r4, #32]
 800067c:	6aa7      	ldr	r7, [r4, #40]	@ 0x28
 800067e:	4640      	mov	r0, r8
 8000680:	47b8      	blx	r7
 8000682:	f1b0 0c00 	subs.w	ip, r0, #0
 8000686:	eba5 050c 	sub.w	r5, r5, ip
 800068a:	4466      	add	r6, ip
 800068c:	dd06      	ble.n	800069c <__sflush_r+0xcc>
 800068e:	2d00      	cmp	r5, #0
 8000690:	dcf1      	bgt.n	8000676 <__sflush_r+0xa6>
 8000692:	e7e0      	b.n	8000656 <__sflush_r+0x86>
 8000694:	6c0a      	ldr	r2, [r1, #64]	@ 0x40
 8000696:	2a00      	cmp	r2, #0
 8000698:	dca5      	bgt.n	80005e6 <__sflush_r+0x16>
 800069a:	e7dc      	b.n	8000656 <__sflush_r+0x86>
 800069c:	f9b4 300c 	ldrsh.w	r3, [r4, #12]
 80006a0:	f043 0340 	orr.w	r3, r3, #64	@ 0x40
 80006a4:	81a3      	strh	r3, [r4, #12]
 80006a6:	f04f 30ff 	mov.w	r0, #4294967295	@ 0xffffffff
 80006aa:	e8bd 81f0 	ldmia.w	sp!, {r4, r5, r6, r7, r8, pc}
 80006ae:	6d62      	ldr	r2, [r4, #84]	@ 0x54
 80006b0:	e7af      	b.n	8000612 <__sflush_r+0x42>
 80006b2:	f8d8 1000 	ldr.w	r1, [r8]
 80006b6:	f9b4 300c 	ldrsh.w	r3, [r4, #12]
 80006ba:	291d      	cmp	r1, #29
 80006bc:	d8f0      	bhi.n	80006a0 <__sflush_r+0xd0>
 80006be:	4a0c      	ldr	r2, [pc, #48]	@ (80006f0 <__sflush_r+0x120>)
 80006c0:	40ca      	lsrs	r2, r1
 80006c2:	07d5      	lsls	r5, r2, #31
 80006c4:	d5ec      	bpl.n	80006a0 <__sflush_r+0xd0>
 80006c6:	6922      	ldr	r2, [r4, #16]
 80006c8:	6022      	str	r2, [r4, #0]
 80006ca:	2200      	movs	r2, #0
 80006cc:	6062      	str	r2, [r4, #4]
 80006ce:	04da      	lsls	r2, r3, #19
 80006d0:	d5b4      	bpl.n	800063c <__sflush_r+0x6c>
 80006d2:	2900      	cmp	r1, #0
 80006d4:	d0b1      	beq.n	800063a <__sflush_r+0x6a>
 80006d6:	e7b1      	b.n	800063c <__sflush_r+0x6c>
 80006d8:	f8d8 3000 	ldr.w	r3, [r8]
 80006dc:	2b00      	cmp	r3, #0
 80006de:	d094      	beq.n	800060a <__sflush_r+0x3a>
 80006e0:	2b1d      	cmp	r3, #29
 80006e2:	d001      	beq.n	80006e8 <__sflush_r+0x118>
 80006e4:	2b16      	cmp	r3, #22
 80006e6:	d1d9      	bne.n	800069c <__sflush_r+0xcc>
 80006e8:	f8c8 6000 	str.w	r6, [r8]
 80006ec:	e7b3      	b.n	8000656 <__sflush_r+0x86>
 80006ee:	bf00      	nop
 80006f0:	20400001 	.word	0x20400001

080006f4 <_fflush_r>:
 80006f4:	690b      	ldr	r3, [r1, #16]
 80006f6:	b1b3      	cbz	r3, 8000726 <_fflush_r+0x32>
 80006f8:	b510      	push	{r4, lr}
 80006fa:	4604      	mov	r4, r0
 80006fc:	b082      	sub	sp, #8
 80006fe:	b108      	cbz	r0, 8000704 <_fflush_r+0x10>
 8000700:	6a03      	ldr	r3, [r0, #32]
 8000702:	b15b      	cbz	r3, 800071c <_fflush_r+0x28>
 8000704:	f9b1 300c 	ldrsh.w	r3, [r1, #12]
 8000708:	b913      	cbnz	r3, 8000710 <_fflush_r+0x1c>
 800070a:	2000      	movs	r0, #0
 800070c:	b002      	add	sp, #8
 800070e:	bd10      	pop	{r4, pc}
 8000710:	4620      	mov	r0, r4
 8000712:	b002      	add	sp, #8
 8000714:	e8bd 4010 	ldmia.w	sp!, {r4, lr}
 8000718:	f7ff bf5a 	b.w	80005d0 <__sflush_r>
 800071c:	9101      	str	r1, [sp, #4]
 800071e:	f7ff fedd 	bl	80004dc <__sinit>
 8000722:	9901      	ldr	r1, [sp, #4]
 8000724:	e7ee      	b.n	8000704 <_fflush_r+0x10>
 8000726:	2000      	movs	r0, #0
 8000728:	4770      	bx	lr
 800072a:	bf00      	nop

0800072c <fflush>:
 800072c:	b1b8      	cbz	r0, 800075e <fflush+0x32>
 800072e:	b538      	push	{r3, r4, r5, lr}
 8000730:	4a0d      	ldr	r2, [pc, #52]	@ (8000768 <fflush+0x3c>)
 8000732:	6903      	ldr	r3, [r0, #16]
 8000734:	6815      	ldr	r5, [r2, #0]
 8000736:	4604      	mov	r4, r0
 8000738:	b12b      	cbz	r3, 8000746 <fflush+0x1a>
 800073a:	b10d      	cbz	r5, 8000740 <fflush+0x14>
 800073c:	6a2b      	ldr	r3, [r5, #32]
 800073e:	b153      	cbz	r3, 8000756 <fflush+0x2a>
 8000740:	f9b4 300c 	ldrsh.w	r3, [r4, #12]
 8000744:	b90b      	cbnz	r3, 800074a <fflush+0x1e>
 8000746:	2000      	movs	r0, #0
 8000748:	bd38      	pop	{r3, r4, r5, pc}
 800074a:	4621      	mov	r1, r4
 800074c:	4628      	mov	r0, r5
 800074e:	e8bd 4038 	ldmia.w	sp!, {r3, r4, r5, lr}
 8000752:	f7ff bf3d 	b.w	80005d0 <__sflush_r>
 8000756:	4628      	mov	r0, r5
 8000758:	f7ff fec0 	bl	80004dc <__sinit>
 800075c:	e7f0      	b.n	8000740 <fflush+0x14>
 800075e:	4a03      	ldr	r2, [pc, #12]	@ (800076c <fflush+0x40>)
 8000760:	4903      	ldr	r1, [pc, #12]	@ (8000770 <fflush+0x44>)
 8000762:	4804      	ldr	r0, [pc, #16]	@ (8000774 <fflush+0x48>)
 8000764:	f000 b910 	b.w	8000988 <_fwalk_sglue>
 8000768:	2000000c 	.word	0x2000000c
 800076c:	20000000 	.word	0x20000000
 8000770:	080006f5 	.word	0x080006f5
 8000774:	20000010 	.word	0x20000010

08000778 <__errno>:
 8000778:	4b01      	ldr	r3, [pc, #4]	@ (8000780 <__errno+0x8>)
 800077a:	6818      	ldr	r0, [r3, #0]
 800077c:	4770      	bx	lr
 800077e:	bf00      	nop
 8000780:	2000000c 	.word	0x2000000c

08000784 <sbrk_aligned>:
 8000784:	b570      	push	{r4, r5, r6, lr}
 8000786:	4e10      	ldr	r6, [pc, #64]	@ (80007c8 <sbrk_aligned+0x44>)
 8000788:	6833      	ldr	r3, [r6, #0]
 800078a:	4605      	mov	r5, r0
 800078c:	460c      	mov	r4, r1
 800078e:	b1b3      	cbz	r3, 80007be <sbrk_aligned+0x3a>
 8000790:	4621      	mov	r1, r4
 8000792:	4628      	mov	r0, r5
 8000794:	f000 fca4 	bl	80010e0 <_sbrk_r>
 8000798:	1c43      	adds	r3, r0, #1
 800079a:	d00c      	beq.n	80007b6 <sbrk_aligned+0x32>
 800079c:	1cc4      	adds	r4, r0, #3
 800079e:	f024 0403 	bic.w	r4, r4, #3
 80007a2:	42a0      	cmp	r0, r4
 80007a4:	d005      	beq.n	80007b2 <sbrk_aligned+0x2e>
 80007a6:	1a21      	subs	r1, r4, r0
 80007a8:	4628      	mov	r0, r5
 80007aa:	f000 fc99 	bl	80010e0 <_sbrk_r>
 80007ae:	3001      	adds	r0, #1
 80007b0:	d001      	beq.n	80007b6 <sbrk_aligned+0x32>
 80007b2:	4620      	mov	r0, r4
 80007b4:	bd70      	pop	{r4, r5, r6, pc}
 80007b6:	f04f 34ff 	mov.w	r4, #4294967295	@ 0xffffffff
 80007ba:	4620      	mov	r0, r4
 80007bc:	bd70      	pop	{r4, r5, r6, pc}
 80007be:	4619      	mov	r1, r3
 80007c0:	f000 fc8e 	bl	80010e0 <_sbrk_r>
 80007c4:	6030      	str	r0, [r6, #0]
 80007c6:	e7e3      	b.n	8000790 <sbrk_aligned+0xc>
 80007c8:	200001c4 	.word	0x200001c4

080007cc <_malloc_r>:
 80007cc:	e92d 43f8 	stmdb	sp!, {r3, r4, r5, r6, r7, r8, r9, lr}
 80007d0:	1ccd      	adds	r5, r1, #3
 80007d2:	f025 0503 	bic.w	r5, r5, #3
 80007d6:	3508      	adds	r5, #8
 80007d8:	2d0c      	cmp	r5, #12
 80007da:	bf38      	it	cc
 80007dc:	250c      	movcc	r5, #12
 80007de:	2d00      	cmp	r5, #0
 80007e0:	4606      	mov	r6, r0
 80007e2:	db18      	blt.n	8000816 <_malloc_r+0x4a>
 80007e4:	42a9      	cmp	r1, r5
 80007e6:	d816      	bhi.n	8000816 <_malloc_r+0x4a>
 80007e8:	f8df 80dc 	ldr.w	r8, [pc, #220]	@ 80008c8 <_malloc_r+0xfc>
 80007ec:	f000 f950 	bl	8000a90 <__malloc_lock>
 80007f0:	f8d8 2004 	ldr.w	r2, [r8, #4]
 80007f4:	b1a2      	cbz	r2, 8000820 <_malloc_r+0x54>
 80007f6:	4614      	mov	r4, r2
 80007f8:	e003      	b.n	8000802 <_malloc_r+0x36>
 80007fa:	6863      	ldr	r3, [r4, #4]
 80007fc:	4622      	mov	r2, r4
 80007fe:	b17b      	cbz	r3, 8000820 <_malloc_r+0x54>
 8000800:	461c      	mov	r4, r3
 8000802:	6823      	ldr	r3, [r4, #0]
 8000804:	1b5b      	subs	r3, r3, r5
 8000806:	d4f8      	bmi.n	80007fa <_malloc_r+0x2e>
 8000808:	2b0b      	cmp	r3, #11
 800080a:	d81f      	bhi.n	800084c <_malloc_r+0x80>
 800080c:	4294      	cmp	r4, r2
 800080e:	6863      	ldr	r3, [r4, #4]
 8000810:	d054      	beq.n	80008bc <_malloc_r+0xf0>
 8000812:	6053      	str	r3, [r2, #4]
 8000814:	e00c      	b.n	8000830 <_malloc_r+0x64>
 8000816:	230c      	movs	r3, #12
 8000818:	6033      	str	r3, [r6, #0]
 800081a:	2000      	movs	r0, #0
 800081c:	e8bd 83f8 	ldmia.w	sp!, {r3, r4, r5, r6, r7, r8, r9, pc}
 8000820:	4629      	mov	r1, r5
 8000822:	4630      	mov	r0, r6
 8000824:	f7ff ffae 	bl	8000784 <sbrk_aligned>
 8000828:	1c43      	adds	r3, r0, #1
 800082a:	4604      	mov	r4, r0
 800082c:	d019      	beq.n	8000862 <_malloc_r+0x96>
 800082e:	6005      	str	r5, [r0, #0]
 8000830:	4630      	mov	r0, r6
 8000832:	f000 f92f 	bl	8000a94 <__malloc_unlock>
 8000836:	f104 000b 	add.w	r0, r4, #11
 800083a:	1d23      	adds	r3, r4, #4
 800083c:	f020 0007 	bic.w	r0, r0, #7
 8000840:	1ac2      	subs	r2, r0, r3
 8000842:	bf1c      	itt	ne
 8000844:	1a1b      	subne	r3, r3, r0
 8000846:	50a3      	strne	r3, [r4, r2]
 8000848:	e8bd 83f8 	ldmia.w	sp!, {r3, r4, r5, r6, r7, r8, r9, pc}
 800084c:	1961      	adds	r1, r4, r5
 800084e:	4294      	cmp	r4, r2
 8000850:	6025      	str	r5, [r4, #0]
 8000852:	bf14      	ite	ne
 8000854:	6051      	strne	r1, [r2, #4]
 8000856:	f8c8 1004 	streq.w	r1, [r8, #4]
 800085a:	5163      	str	r3, [r4, r5]
 800085c:	6863      	ldr	r3, [r4, #4]
 800085e:	604b      	str	r3, [r1, #4]
 8000860:	e7e6      	b.n	8000830 <_malloc_r+0x64>
 8000862:	f8d8 7004 	ldr.w	r7, [r8, #4]
 8000866:	b31f      	cbz	r7, 80008b0 <_malloc_r+0xe4>
 8000868:	463c      	mov	r4, r7
 800086a:	687f      	ldr	r7, [r7, #4]
 800086c:	2f00      	cmp	r7, #0
 800086e:	d1fb      	bne.n	8000868 <_malloc_r+0x9c>
 8000870:	6823      	ldr	r3, [r4, #0]
 8000872:	4639      	mov	r1, r7
 8000874:	4630      	mov	r0, r6
 8000876:	eb04 0903 	add.w	r9, r4, r3
 800087a:	f000 fc31 	bl	80010e0 <_sbrk_r>
 800087e:	4581      	cmp	r9, r0
 8000880:	d116      	bne.n	80008b0 <_malloc_r+0xe4>
 8000882:	6823      	ldr	r3, [r4, #0]
 8000884:	1aed      	subs	r5, r5, r3
 8000886:	4629      	mov	r1, r5
 8000888:	4630      	mov	r0, r6
 800088a:	f7ff ff7b 	bl	8000784 <sbrk_aligned>
 800088e:	3001      	adds	r0, #1
 8000890:	d00e      	beq.n	80008b0 <_malloc_r+0xe4>
 8000892:	6823      	ldr	r3, [r4, #0]
 8000894:	f8d8 2004 	ldr.w	r2, [r8, #4]
 8000898:	442b      	add	r3, r5
 800089a:	6023      	str	r3, [r4, #0]
 800089c:	6853      	ldr	r3, [r2, #4]
 800089e:	b183      	cbz	r3, 80008c2 <_malloc_r+0xf6>
 80008a0:	42a3      	cmp	r3, r4
 80008a2:	d003      	beq.n	80008ac <_malloc_r+0xe0>
 80008a4:	461a      	mov	r2, r3
 80008a6:	685b      	ldr	r3, [r3, #4]
 80008a8:	429c      	cmp	r4, r3
 80008aa:	d1fb      	bne.n	80008a4 <_malloc_r+0xd8>
 80008ac:	2300      	movs	r3, #0
 80008ae:	e7b0      	b.n	8000812 <_malloc_r+0x46>
 80008b0:	230c      	movs	r3, #12
 80008b2:	6033      	str	r3, [r6, #0]
 80008b4:	4630      	mov	r0, r6
 80008b6:	f000 f8ed 	bl	8000a94 <__malloc_unlock>
 80008ba:	e7ae      	b.n	800081a <_malloc_r+0x4e>
 80008bc:	f8c8 3004 	str.w	r3, [r8, #4]
 80008c0:	e7b6      	b.n	8000830 <_malloc_r+0x64>
 80008c2:	f8c8 7004 	str.w	r7, [r8, #4]
 80008c6:	e7b3      	b.n	8000830 <_malloc_r+0x64>
 80008c8:	200001c4 	.word	0x200001c4

080008cc <_free_r>:
 80008cc:	2900      	cmp	r1, #0
 80008ce:	d050      	beq.n	8000972 <_free_r+0xa6>
 80008d0:	b538      	push	{r3, r4, r5, lr}
 80008d2:	f851 3c04 	ldr.w	r3, [r1, #-4]
 80008d6:	1f0c      	subs	r4, r1, #4
 80008d8:	2b00      	cmp	r3, #0
 80008da:	bfb8      	it	lt
 80008dc:	18e4      	addlt	r4, r4, r3
 80008de:	4605      	mov	r5, r0
 80008e0:	f000 f8d6 	bl	8000a90 <__malloc_lock>
 80008e4:	4a27      	ldr	r2, [pc, #156]	@ (8000984 <_free_r+0xb8>)
 80008e6:	6813      	ldr	r3, [r2, #0]
 80008e8:	b12b      	cbz	r3, 80008f6 <_free_r+0x2a>
 80008ea:	42a3      	cmp	r3, r4
 80008ec:	d90c      	bls.n	8000908 <_free_r+0x3c>
 80008ee:	6821      	ldr	r1, [r4, #0]
 80008f0:	1860      	adds	r0, r4, r1
 80008f2:	4283      	cmp	r3, r0
 80008f4:	d02c      	beq.n	8000950 <_free_r+0x84>
 80008f6:	6063      	str	r3, [r4, #4]
 80008f8:	4628      	mov	r0, r5
 80008fa:	6014      	str	r4, [r2, #0]
 80008fc:	e8bd 4038 	ldmia.w	sp!, {r3, r4, r5, lr}
 8000900:	f000 b8c8 	b.w	8000a94 <__malloc_unlock>
 8000904:	42a3      	cmp	r3, r4
 8000906:	d80f      	bhi.n	8000928 <_free_r+0x5c>
 8000908:	461a      	mov	r2, r3
 800090a:	685b      	ldr	r3, [r3, #4]
 800090c:	2b00      	cmp	r3, #0
 800090e:	d1f9      	bne.n	8000904 <_free_r+0x38>
 8000910:	6811      	ldr	r1, [r2, #0]
 8000912:	1850      	adds	r0, r2, r1
 8000914:	4284      	cmp	r4, r0
 8000916:	d017      	beq.n	8000948 <_free_r+0x7c>
 8000918:	d32c      	bcc.n	8000974 <_free_r+0xa8>
 800091a:	6063      	str	r3, [r4, #4]
 800091c:	6054      	str	r4, [r2, #4]
 800091e:	4628      	mov	r0, r5
 8000920:	e8bd 4038 	ldmia.w	sp!, {r3, r4, r5, lr}
 8000924:	f000 b8b6 	b.w	8000a94 <__malloc_unlock>
 8000928:	6811      	ldr	r1, [r2, #0]
 800092a:	1850      	adds	r0, r2, r1
 800092c:	42a0      	cmp	r0, r4
 800092e:	d014      	beq.n	800095a <_free_r+0x8e>
 8000930:	d820      	bhi.n	8000974 <_free_r+0xa8>
 8000932:	6821      	ldr	r1, [r4, #0]
 8000934:	1860      	adds	r0, r4, r1
 8000936:	4283      	cmp	r3, r0
 8000938:	d1ef      	bne.n	800091a <_free_r+0x4e>
 800093a:	6818      	ldr	r0, [r3, #0]
 800093c:	685b      	ldr	r3, [r3, #4]
 800093e:	4408      	add	r0, r1
 8000940:	e9c4 0300 	strd	r0, r3, [r4]
 8000944:	6054      	str	r4, [r2, #4]
 8000946:	e7ea      	b.n	800091e <_free_r+0x52>
 8000948:	6823      	ldr	r3, [r4, #0]
 800094a:	440b      	add	r3, r1
 800094c:	6013      	str	r3, [r2, #0]
 800094e:	e7e6      	b.n	800091e <_free_r+0x52>
 8000950:	6818      	ldr	r0, [r3, #0]
 8000952:	685b      	ldr	r3, [r3, #4]
 8000954:	4408      	add	r0, r1
 8000956:	6020      	str	r0, [r4, #0]
 8000958:	e7cd      	b.n	80008f6 <_free_r+0x2a>
 800095a:	6820      	ldr	r0, [r4, #0]
 800095c:	4401      	add	r1, r0
 800095e:	1850      	adds	r0, r2, r1
 8000960:	4283      	cmp	r3, r0
 8000962:	6011      	str	r1, [r2, #0]
 8000964:	d1db      	bne.n	800091e <_free_r+0x52>
 8000966:	e9d3 0400 	ldrd	r0, r4, [r3]
 800096a:	4401      	add	r1, r0
 800096c:	e9c2 1400 	strd	r1, r4, [r2]
 8000970:	e7d5      	b.n	800091e <_free_r+0x52>
 8000972:	4770      	bx	lr
 8000974:	230c      	movs	r3, #12
 8000976:	602b      	str	r3, [r5, #0]
 8000978:	4628      	mov	r0, r5
 800097a:	e8bd 4038 	ldmia.w	sp!, {r3, r4, r5, lr}
 800097e:	f000 b889 	b.w	8000a94 <__malloc_unlock>
 8000982:	bf00      	nop
 8000984:	200001c8 	.word	0x200001c8

08000988 <_fwalk_sglue>:
 8000988:	e92d 43f8 	stmdb	sp!, {r3, r4, r5, r6, r7, r8, r9, lr}
 800098c:	4607      	mov	r7, r0
 800098e:	4688      	mov	r8, r1
 8000990:	4616      	mov	r6, r2
 8000992:	f04f 0900 	mov.w	r9, #0
 8000996:	e9d6 5401 	ldrd	r5, r4, [r6, #4]
 800099a:	3d01      	subs	r5, #1
 800099c:	d410      	bmi.n	80009c0 <_fwalk_sglue+0x38>
 800099e:	89a3      	ldrh	r3, [r4, #12]
 80009a0:	2b01      	cmp	r3, #1
 80009a2:	d908      	bls.n	80009b6 <_fwalk_sglue+0x2e>
 80009a4:	f9b4 300e 	ldrsh.w	r3, [r4, #14]
 80009a8:	3301      	adds	r3, #1
 80009aa:	4621      	mov	r1, r4
 80009ac:	4638      	mov	r0, r7
 80009ae:	d002      	beq.n	80009b6 <_fwalk_sglue+0x2e>
 80009b0:	47c0      	blx	r8
 80009b2:	ea49 0900 	orr.w	r9, r9, r0
 80009b6:	3d01      	subs	r5, #1
 80009b8:	1c6b      	adds	r3, r5, #1
 80009ba:	f104 0468 	add.w	r4, r4, #104	@ 0x68
 80009be:	d1ee      	bne.n	800099e <_fwalk_sglue+0x16>
 80009c0:	6836      	ldr	r6, [r6, #0]
 80009c2:	2e00      	cmp	r6, #0
 80009c4:	d1e7      	bne.n	8000996 <_fwalk_sglue+0xe>
 80009c6:	4648      	mov	r0, r9
 80009c8:	e8bd 83f8 	ldmia.w	sp!, {r3, r4, r5, r6, r7, r8, r9, pc}

080009cc <__swsetup_r>:
 80009cc:	b538      	push	{r3, r4, r5, lr}
 80009ce:	4b2f      	ldr	r3, [pc, #188]	@ (8000a8c <__swsetup_r+0xc0>)
 80009d0:	681b      	ldr	r3, [r3, #0]
 80009d2:	4605      	mov	r5, r0
 80009d4:	460c      	mov	r4, r1
 80009d6:	b113      	cbz	r3, 80009de <__swsetup_r+0x12>
 80009d8:	6a1a      	ldr	r2, [r3, #32]
 80009da:	2a00      	cmp	r2, #0
 80009dc:	d04b      	beq.n	8000a76 <__swsetup_r+0xaa>
 80009de:	f9b4 300c 	ldrsh.w	r3, [r4, #12]
 80009e2:	0718      	lsls	r0, r3, #28
 80009e4:	d51c      	bpl.n	8000a20 <__swsetup_r+0x54>
 80009e6:	6922      	ldr	r2, [r4, #16]
 80009e8:	b322      	cbz	r2, 8000a34 <__swsetup_r+0x68>
 80009ea:	f013 0101 	ands.w	r1, r3, #1
 80009ee:	d007      	beq.n	8000a00 <__swsetup_r+0x34>
 80009f0:	6961      	ldr	r1, [r4, #20]
 80009f2:	2000      	movs	r0, #0
 80009f4:	4249      	negs	r1, r1
 80009f6:	60a0      	str	r0, [r4, #8]
 80009f8:	61a1      	str	r1, [r4, #24]
 80009fa:	b13a      	cbz	r2, 8000a0c <__swsetup_r+0x40>
 80009fc:	2000      	movs	r0, #0
 80009fe:	bd38      	pop	{r3, r4, r5, pc}
 8000a00:	0798      	lsls	r0, r3, #30
 8000a02:	bf58      	it	pl
 8000a04:	6961      	ldrpl	r1, [r4, #20]
 8000a06:	60a1      	str	r1, [r4, #8]
 8000a08:	2a00      	cmp	r2, #0
 8000a0a:	d1f7      	bne.n	80009fc <__swsetup_r+0x30>
 8000a0c:	0619      	lsls	r1, r3, #24
 8000a0e:	bf58      	it	pl
 8000a10:	4610      	movpl	r0, r2
 8000a12:	d5f4      	bpl.n	80009fe <__swsetup_r+0x32>
 8000a14:	f043 0340 	orr.w	r3, r3, #64	@ 0x40
 8000a18:	81a3      	strh	r3, [r4, #12]
 8000a1a:	f04f 30ff 	mov.w	r0, #4294967295	@ 0xffffffff
 8000a1e:	bd38      	pop	{r3, r4, r5, pc}
 8000a20:	06d9      	lsls	r1, r3, #27
 8000a22:	d52c      	bpl.n	8000a7e <__swsetup_r+0xb2>
 8000a24:	075a      	lsls	r2, r3, #29
 8000a26:	d412      	bmi.n	8000a4e <__swsetup_r+0x82>
 8000a28:	6922      	ldr	r2, [r4, #16]
 8000a2a:	f043 0308 	orr.w	r3, r3, #8
 8000a2e:	81a3      	strh	r3, [r4, #12]
 8000a30:	2a00      	cmp	r2, #0
 8000a32:	d1da      	bne.n	80009ea <__swsetup_r+0x1e>
 8000a34:	f403 7120 	and.w	r1, r3, #640	@ 0x280
 8000a38:	f5b1 7f00 	cmp.w	r1, #512	@ 0x200
 8000a3c:	d0d5      	beq.n	80009ea <__swsetup_r+0x1e>
 8000a3e:	4621      	mov	r1, r4
 8000a40:	4628      	mov	r0, r5
 8000a42:	f000 f829 	bl	8000a98 <__smakebuf_r>
 8000a46:	f9b4 300c 	ldrsh.w	r3, [r4, #12]
 8000a4a:	6922      	ldr	r2, [r4, #16]
 8000a4c:	e7cd      	b.n	80009ea <__swsetup_r+0x1e>
 8000a4e:	6b61      	ldr	r1, [r4, #52]	@ 0x34
 8000a50:	b151      	cbz	r1, 8000a68 <__swsetup_r+0x9c>
 8000a52:	f104 0244 	add.w	r2, r4, #68	@ 0x44
 8000a56:	4291      	cmp	r1, r2
 8000a58:	d004      	beq.n	8000a64 <__swsetup_r+0x98>
 8000a5a:	4628      	mov	r0, r5
 8000a5c:	f7ff ff36 	bl	80008cc <_free_r>
 8000a60:	f9b4 300c 	ldrsh.w	r3, [r4, #12]
 8000a64:	2200      	movs	r2, #0
 8000a66:	6362      	str	r2, [r4, #52]	@ 0x34
 8000a68:	6922      	ldr	r2, [r4, #16]
 8000a6a:	2100      	movs	r1, #0
 8000a6c:	e9c4 2100 	strd	r2, r1, [r4]
 8000a70:	f023 0324 	bic.w	r3, r3, #36	@ 0x24
 8000a74:	e7d9      	b.n	8000a2a <__swsetup_r+0x5e>
 8000a76:	4618      	mov	r0, r3
 8000a78:	f7ff fd30 	bl	80004dc <__sinit>
 8000a7c:	e7af      	b.n	80009de <__swsetup_r+0x12>
 8000a7e:	2209      	movs	r2, #9
 8000a80:	f043 0340 	orr.w	r3, r3, #64	@ 0x40
 8000a84:	602a      	str	r2, [r5, #0]
 8000a86:	81a3      	strh	r3, [r4, #12]
 8000a88:	e7c7      	b.n	8000a1a <__swsetup_r+0x4e>
 8000a8a:	bf00      	nop
 8000a8c:	2000000c 	.word	0x2000000c

08000a90 <__malloc_lock>:
 8000a90:	4770      	bx	lr
 8000a92:	bf00      	nop

08000a94 <__malloc_unlock>:
 8000a94:	4770      	bx	lr
 8000a96:	bf00      	nop

08000a98 <__smakebuf_r>:
 8000a98:	b570      	push	{r4, r5, r6, lr}
 8000a9a:	f9b1 300c 	ldrsh.w	r3, [r1, #12]
 8000a9e:	460c      	mov	r4, r1
 8000aa0:	0799      	lsls	r1, r3, #30
 8000aa2:	b096      	sub	sp, #88	@ 0x58
 8000aa4:	d507      	bpl.n	8000ab6 <__smakebuf_r+0x1e>
 8000aa6:	f104 0347 	add.w	r3, r4, #71	@ 0x47
 8000aaa:	2201      	movs	r2, #1
 8000aac:	e9c4 3204 	strd	r3, r2, [r4, #16]
 8000ab0:	6023      	str	r3, [r4, #0]
 8000ab2:	b016      	add	sp, #88	@ 0x58
 8000ab4:	bd70      	pop	{r4, r5, r6, pc}
 8000ab6:	f9b4 100e 	ldrsh.w	r1, [r4, #14]
 8000aba:	2900      	cmp	r1, #0
 8000abc:	4605      	mov	r5, r0
 8000abe:	db29      	blt.n	8000b14 <__smakebuf_r+0x7c>
 8000ac0:	466a      	mov	r2, sp
 8000ac2:	f001 fa83 	bl	8001fcc <_fstat_r>
 8000ac6:	2800      	cmp	r0, #0
 8000ac8:	db22      	blt.n	8000b10 <__smakebuf_r+0x78>
 8000aca:	f44f 6180 	mov.w	r1, #1024	@ 0x400
 8000ace:	4628      	mov	r0, r5
 8000ad0:	9e01      	ldr	r6, [sp, #4]
 8000ad2:	f7ff fe7b 	bl	80007cc <_malloc_r>
 8000ad6:	b388      	cbz	r0, 8000b3c <__smakebuf_r+0xa4>
 8000ad8:	89a3      	ldrh	r3, [r4, #12]
 8000ada:	6020      	str	r0, [r4, #0]
 8000adc:	f043 0380 	orr.w	r3, r3, #128	@ 0x80
 8000ae0:	f406 4670 	and.w	r6, r6, #61440	@ 0xf000
 8000ae4:	81a3      	strh	r3, [r4, #12]
 8000ae6:	f5b6 5f00 	cmp.w	r6, #8192	@ 0x2000
 8000aea:	f44f 6380 	mov.w	r3, #1024	@ 0x400
 8000aee:	e9c4 0304 	strd	r0, r3, [r4, #16]
 8000af2:	d1de      	bne.n	8000ab2 <__smakebuf_r+0x1a>
 8000af4:	f9b4 100e 	ldrsh.w	r1, [r4, #14]
 8000af8:	4628      	mov	r0, r5
 8000afa:	f000 f905 	bl	8000d08 <_isatty_r>
 8000afe:	2800      	cmp	r0, #0
 8000b00:	d0d7      	beq.n	8000ab2 <__smakebuf_r+0x1a>
 8000b02:	89a3      	ldrh	r3, [r4, #12]
 8000b04:	f023 0303 	bic.w	r3, r3, #3
 8000b08:	f043 0301 	orr.w	r3, r3, #1
 8000b0c:	81a3      	strh	r3, [r4, #12]
 8000b0e:	e7d0      	b.n	8000ab2 <__smakebuf_r+0x1a>
 8000b10:	f9b4 300c 	ldrsh.w	r3, [r4, #12]
 8000b14:	f013 0f80 	tst.w	r3, #128	@ 0x80
 8000b18:	bf14      	ite	ne
 8000b1a:	2640      	movne	r6, #64	@ 0x40
 8000b1c:	f44f 6680 	moveq.w	r6, #1024	@ 0x400
 8000b20:	4631      	mov	r1, r6
 8000b22:	4628      	mov	r0, r5
 8000b24:	f7ff fe52 	bl	80007cc <_malloc_r>
 8000b28:	b140      	cbz	r0, 8000b3c <__smakebuf_r+0xa4>
 8000b2a:	89a3      	ldrh	r3, [r4, #12]
 8000b2c:	6020      	str	r0, [r4, #0]
 8000b2e:	f043 0380 	orr.w	r3, r3, #128	@ 0x80
 8000b32:	e9c4 0604 	strd	r0, r6, [r4, #16]
 8000b36:	81a3      	strh	r3, [r4, #12]
 8000b38:	b016      	add	sp, #88	@ 0x58
 8000b3a:	bd70      	pop	{r4, r5, r6, pc}
 8000b3c:	f9b4 300c 	ldrsh.w	r3, [r4, #12]
 8000b40:	059a      	lsls	r2, r3, #22
 8000b42:	d4b6      	bmi.n	8000ab2 <__smakebuf_r+0x1a>
 8000b44:	f023 0303 	bic.w	r3, r3, #3
 8000b48:	f104 0247 	add.w	r2, r4, #71	@ 0x47
 8000b4c:	f043 0302 	orr.w	r3, r3, #2
 8000b50:	2101      	movs	r1, #1
 8000b52:	e9c4 2104 	strd	r2, r1, [r4, #16]
 8000b56:	81a3      	strh	r3, [r4, #12]
 8000b58:	6022      	str	r2, [r4, #0]
 8000b5a:	e7aa      	b.n	8000ab2 <__smakebuf_r+0x1a>

08000b5c <__swhatbuf_r>:
 8000b5c:	b570      	push	{r4, r5, r6, lr}
 8000b5e:	460c      	mov	r4, r1
 8000b60:	f9b1 100e 	ldrsh.w	r1, [r1, #14]
 8000b64:	2900      	cmp	r1, #0
 8000b66:	b096      	sub	sp, #88	@ 0x58
 8000b68:	4615      	mov	r5, r2
 8000b6a:	461e      	mov	r6, r3
 8000b6c:	db0f      	blt.n	8000b8e <__swhatbuf_r+0x32>
 8000b6e:	466a      	mov	r2, sp
 8000b70:	f001 fa2c 	bl	8001fcc <_fstat_r>
 8000b74:	2800      	cmp	r0, #0
 8000b76:	db0a      	blt.n	8000b8e <__swhatbuf_r+0x32>
 8000b78:	9b01      	ldr	r3, [sp, #4]
 8000b7a:	f403 4370 	and.w	r3, r3, #61440	@ 0xf000
 8000b7e:	f5a3 5300 	sub.w	r3, r3, #8192	@ 0x2000
 8000b82:	fab3 f383 	clz	r3, r3
 8000b86:	f44f 6280 	mov.w	r2, #1024	@ 0x400
 8000b8a:	095b      	lsrs	r3, r3, #5
 8000b8c:	e008      	b.n	8000ba0 <__swhatbuf_r+0x44>
 8000b8e:	89a2      	ldrh	r2, [r4, #12]
 8000b90:	f012 0f80 	tst.w	r2, #128	@ 0x80
 8000b94:	f04f 0300 	mov.w	r3, #0
 8000b98:	bf14      	ite	ne
 8000b9a:	2240      	movne	r2, #64	@ 0x40
 8000b9c:	f44f 6280 	moveq.w	r2, #1024	@ 0x400
 8000ba0:	2000      	movs	r0, #0
 8000ba2:	6033      	str	r3, [r6, #0]
 8000ba4:	602a      	str	r2, [r5, #0]
 8000ba6:	b016      	add	sp, #88	@ 0x58
 8000ba8:	bd70      	pop	{r4, r5, r6, pc}
 8000baa:	bf00      	nop

08000bac <_sniprintf_r>:
 8000bac:	b408      	push	{r3}
 8000bae:	b510      	push	{r4, lr}
 8000bb0:	2a00      	cmp	r2, #0
 8000bb2:	b09d      	sub	sp, #116	@ 0x74
 8000bb4:	4604      	mov	r4, r0
 8000bb6:	db36      	blt.n	8000c26 <_sniprintf_r+0x7a>
 8000bb8:	f44f 7302 	mov.w	r3, #520	@ 0x208
 8000bbc:	f8ad 3014 	strh.w	r3, [sp, #20]
 8000bc0:	f04f 0300 	mov.w	r3, #0
 8000bc4:	931b      	str	r3, [sp, #108]	@ 0x6c
 8000bc6:	9102      	str	r1, [sp, #8]
 8000bc8:	9106      	str	r1, [sp, #24]
 8000bca:	ab20      	add	r3, sp, #128	@ 0x80
 8000bcc:	d017      	beq.n	8000bfe <_sniprintf_r+0x52>
 8000bce:	3a01      	subs	r2, #1
 8000bd0:	f64f 71ff 	movw	r1, #65535	@ 0xffff
 8000bd4:	9204      	str	r2, [sp, #16]
 8000bd6:	9207      	str	r2, [sp, #28]
 8000bd8:	f8ad 1016 	strh.w	r1, [sp, #22]
 8000bdc:	9a1f      	ldr	r2, [sp, #124]	@ 0x7c
 8000bde:	9301      	str	r3, [sp, #4]
 8000be0:	a902      	add	r1, sp, #8
 8000be2:	f000 fbbd 	bl	8001360 <_svfiprintf_r>
 8000be6:	1c42      	adds	r2, r0, #1
 8000be8:	da01      	bge.n	8000bee <_sniprintf_r+0x42>
 8000bea:	238b      	movs	r3, #139	@ 0x8b
 8000bec:	6023      	str	r3, [r4, #0]
 8000bee:	9b02      	ldr	r3, [sp, #8]
 8000bf0:	2200      	movs	r2, #0
 8000bf2:	701a      	strb	r2, [r3, #0]
 8000bf4:	b01d      	add	sp, #116	@ 0x74
 8000bf6:	e8bd 4010 	ldmia.w	sp!, {r4, lr}
 8000bfa:	b001      	add	sp, #4
 8000bfc:	4770      	bx	lr
 8000bfe:	f64f 71ff 	movw	r1, #65535	@ 0xffff
 8000c02:	9204      	str	r2, [sp, #16]
 8000c04:	9207      	str	r2, [sp, #28]
 8000c06:	f8ad 1016 	strh.w	r1, [sp, #22]
 8000c0a:	9a1f      	ldr	r2, [sp, #124]	@ 0x7c
 8000c0c:	9301      	str	r3, [sp, #4]
 8000c0e:	a902      	add	r1, sp, #8
 8000c10:	f000 fba6 	bl	8001360 <_svfiprintf_r>
 8000c14:	1c43      	adds	r3, r0, #1
 8000c16:	da01      	bge.n	8000c1c <_sniprintf_r+0x70>
 8000c18:	238b      	movs	r3, #139	@ 0x8b
 8000c1a:	6023      	str	r3, [r4, #0]
 8000c1c:	b01d      	add	sp, #116	@ 0x74
 8000c1e:	e8bd 4010 	ldmia.w	sp!, {r4, lr}
 8000c22:	b001      	add	sp, #4
 8000c24:	4770      	bx	lr
 8000c26:	238b      	movs	r3, #139	@ 0x8b
 8000c28:	6003      	str	r3, [r0, #0]
 8000c2a:	f04f 30ff 	mov.w	r0, #4294967295	@ 0xffffffff
 8000c2e:	e7f5      	b.n	8000c1c <_sniprintf_r+0x70>

08000c30 <sniprintf>:
 8000c30:	b40c      	push	{r2, r3}
 8000c32:	b510      	push	{r4, lr}
 8000c34:	4b21      	ldr	r3, [pc, #132]	@ (8000cbc <sniprintf+0x8c>)
 8000c36:	2900      	cmp	r1, #0
 8000c38:	681c      	ldr	r4, [r3, #0]
 8000c3a:	b09c      	sub	sp, #112	@ 0x70
 8000c3c:	db38      	blt.n	8000cb0 <sniprintf+0x80>
 8000c3e:	f04f 0300 	mov.w	r3, #0
 8000c42:	f44f 7202 	mov.w	r2, #520	@ 0x208
 8000c46:	931b      	str	r3, [sp, #108]	@ 0x6c
 8000c48:	f8ad 2014 	strh.w	r2, [sp, #20]
 8000c4c:	9002      	str	r0, [sp, #8]
 8000c4e:	9006      	str	r0, [sp, #24]
 8000c50:	ab1f      	add	r3, sp, #124	@ 0x7c
 8000c52:	d018      	beq.n	8000c86 <sniprintf+0x56>
 8000c54:	3901      	subs	r1, #1
 8000c56:	f64f 72ff 	movw	r2, #65535	@ 0xffff
 8000c5a:	9104      	str	r1, [sp, #16]
 8000c5c:	9107      	str	r1, [sp, #28]
 8000c5e:	f8ad 2016 	strh.w	r2, [sp, #22]
 8000c62:	a902      	add	r1, sp, #8
 8000c64:	9a1e      	ldr	r2, [sp, #120]	@ 0x78
 8000c66:	9301      	str	r3, [sp, #4]
 8000c68:	4620      	mov	r0, r4
 8000c6a:	f000 fb79 	bl	8001360 <_svfiprintf_r>
 8000c6e:	1c42      	adds	r2, r0, #1
 8000c70:	da01      	bge.n	8000c76 <sniprintf+0x46>
 8000c72:	238b      	movs	r3, #139	@ 0x8b
 8000c74:	6023      	str	r3, [r4, #0]
 8000c76:	9b02      	ldr	r3, [sp, #8]
 8000c78:	2200      	movs	r2, #0
 8000c7a:	701a      	strb	r2, [r3, #0]
 8000c7c:	b01c      	add	sp, #112	@ 0x70
 8000c7e:	e8bd 4010 	ldmia.w	sp!, {r4, lr}
 8000c82:	b002      	add	sp, #8
 8000c84:	4770      	bx	lr
 8000c86:	f64f 72ff 	movw	r2, #65535	@ 0xffff
 8000c8a:	9104      	str	r1, [sp, #16]
 8000c8c:	9107      	str	r1, [sp, #28]
 8000c8e:	f8ad 2016 	strh.w	r2, [sp, #22]
 8000c92:	a902      	add	r1, sp, #8
 8000c94:	9a1e      	ldr	r2, [sp, #120]	@ 0x78
 8000c96:	9301      	str	r3, [sp, #4]
 8000c98:	4620      	mov	r0, r4
 8000c9a:	f000 fb61 	bl	8001360 <_svfiprintf_r>
 8000c9e:	1c43      	adds	r3, r0, #1
 8000ca0:	da01      	bge.n	8000ca6 <sniprintf+0x76>
 8000ca2:	238b      	movs	r3, #139	@ 0x8b
 8000ca4:	6023      	str	r3, [r4, #0]
 8000ca6:	b01c      	add	sp, #112	@ 0x70
 8000ca8:	e8bd 4010 	ldmia.w	sp!, {r4, lr}
 8000cac:	b002      	add	sp, #8
 8000cae:	4770      	bx	lr
 8000cb0:	238b      	movs	r3, #139	@ 0x8b
 8000cb2:	6023      	str	r3, [r4, #0]
 8000cb4:	f04f 30ff 	mov.w	r0, #4294967295	@ 0xffffffff
 8000cb8:	e7f5      	b.n	8000ca6 <sniprintf+0x76>
 8000cba:	bf00      	nop
 8000cbc:	2000000c 	.word	0x2000000c

08000cc0 <_iprintf_r>:
 8000cc0:	b40e      	push	{r1, r2, r3}
 8000cc2:	b500      	push	{lr}
 8000cc4:	b082      	sub	sp, #8
 8000cc6:	ab03      	add	r3, sp, #12
 8000cc8:	6881      	ldr	r1, [r0, #8]
 8000cca:	f853 2b04 	ldr.w	r2, [r3], #4
 8000cce:	9301      	str	r3, [sp, #4]
 8000cd0:	f000 f872 	bl	8000db8 <_vfiprintf_r>
 8000cd4:	b002      	add	sp, #8
 8000cd6:	f85d eb04 	ldr.w	lr, [sp], #4
 8000cda:	b003      	add	sp, #12
 8000cdc:	4770      	bx	lr
 8000cde:	bf00      	nop

08000ce0 <iprintf>:
 8000ce0:	b40f      	push	{r0, r1, r2, r3}
 8000ce2:	b500      	push	{lr}
 8000ce4:	4907      	ldr	r1, [pc, #28]	@ (8000d04 <iprintf+0x24>)
 8000ce6:	b083      	sub	sp, #12
 8000ce8:	ab04      	add	r3, sp, #16
 8000cea:	6808      	ldr	r0, [r1, #0]
 8000cec:	f853 2b04 	ldr.w	r2, [r3], #4
 8000cf0:	6881      	ldr	r1, [r0, #8]
 8000cf2:	9301      	str	r3, [sp, #4]
 8000cf4:	f000 f860 	bl	8000db8 <_vfiprintf_r>
 8000cf8:	b003      	add	sp, #12
 8000cfa:	f85d eb04 	ldr.w	lr, [sp], #4
 8000cfe:	b004      	add	sp, #16
 8000d00:	4770      	bx	lr
 8000d02:	bf00      	nop
 8000d04:	2000000c 	.word	0x2000000c

08000d08 <_isatty_r>:
 8000d08:	b538      	push	{r3, r4, r5, lr}
 8000d0a:	4d07      	ldr	r5, [pc, #28]	@ (8000d28 <_isatty_r+0x20>)
 8000d0c:	2200      	movs	r2, #0
 8000d0e:	4604      	mov	r4, r0
 8000d10:	4608      	mov	r0, r1
 8000d12:	602a      	str	r2, [r5, #0]
 8000d14:	f001 fbcb 	bl	80024ae <_isatty>
 8000d18:	1c43      	adds	r3, r0, #1
 8000d1a:	d000      	beq.n	8000d1e <_isatty_r+0x16>
 8000d1c:	bd38      	pop	{r3, r4, r5, pc}
 8000d1e:	682b      	ldr	r3, [r5, #0]
 8000d20:	2b00      	cmp	r3, #0
 8000d22:	d0fb      	beq.n	8000d1c <_isatty_r+0x14>
 8000d24:	6023      	str	r3, [r4, #0]
 8000d26:	bd38      	pop	{r3, r4, r5, pc}
 8000d28:	200001cc 	.word	0x200001cc

08000d2c <__sfputc_r>:
 8000d2c:	6893      	ldr	r3, [r2, #8]
 8000d2e:	3b01      	subs	r3, #1
 8000d30:	2b00      	cmp	r3, #0
 8000d32:	6093      	str	r3, [r2, #8]
 8000d34:	da11      	bge.n	8000d5a <__sfputc_r+0x2e>
 8000d36:	b410      	push	{r4}
 8000d38:	6994      	ldr	r4, [r2, #24]
 8000d3a:	42a3      	cmp	r3, r4
 8000d3c:	db09      	blt.n	8000d52 <__sfputc_r+0x26>
 8000d3e:	290a      	cmp	r1, #10
 8000d40:	d007      	beq.n	8000d52 <__sfputc_r+0x26>
 8000d42:	6813      	ldr	r3, [r2, #0]
 8000d44:	1c58      	adds	r0, r3, #1
 8000d46:	6010      	str	r0, [r2, #0]
 8000d48:	7019      	strb	r1, [r3, #0]
 8000d4a:	4608      	mov	r0, r1
 8000d4c:	f85d 4b04 	ldr.w	r4, [sp], #4
 8000d50:	4770      	bx	lr
 8000d52:	f85d 4b04 	ldr.w	r4, [sp], #4
 8000d56:	f000 b973 	b.w	8001040 <__swbuf_r>
 8000d5a:	6813      	ldr	r3, [r2, #0]
 8000d5c:	1c58      	adds	r0, r3, #1
 8000d5e:	6010      	str	r0, [r2, #0]
 8000d60:	7019      	strb	r1, [r3, #0]
 8000d62:	4608      	mov	r0, r1
 8000d64:	4770      	bx	lr
 8000d66:	bf00      	nop

08000d68 <__sfputs_r>:
 8000d68:	b19b      	cbz	r3, 8000d92 <__sfputs_r+0x2a>
 8000d6a:	b5f8      	push	{r3, r4, r5, r6, r7, lr}
 8000d6c:	4413      	add	r3, r2
 8000d6e:	4606      	mov	r6, r0
 8000d70:	460f      	mov	r7, r1
 8000d72:	1e54      	subs	r4, r2, #1
 8000d74:	1e5d      	subs	r5, r3, #1
 8000d76:	e001      	b.n	8000d7c <__sfputs_r+0x14>
 8000d78:	42ac      	cmp	r4, r5
 8000d7a:	d008      	beq.n	8000d8e <__sfputs_r+0x26>
 8000d7c:	f814 1f01 	ldrb.w	r1, [r4, #1]!
 8000d80:	463a      	mov	r2, r7
 8000d82:	4630      	mov	r0, r6
 8000d84:	f7ff ffd2 	bl	8000d2c <__sfputc_r>
 8000d88:	1c43      	adds	r3, r0, #1
 8000d8a:	d1f5      	bne.n	8000d78 <__sfputs_r+0x10>
 8000d8c:	bdf8      	pop	{r3, r4, r5, r6, r7, pc}
 8000d8e:	2000      	movs	r0, #0
 8000d90:	bdf8      	pop	{r3, r4, r5, r6, r7, pc}
 8000d92:	2000      	movs	r0, #0
 8000d94:	4770      	bx	lr
 8000d96:	bf00      	nop

08000d98 <__sprint_r>:
 8000d98:	6893      	ldr	r3, [r2, #8]
 8000d9a:	b510      	push	{r4, lr}
 8000d9c:	4614      	mov	r4, r2
 8000d9e:	b91b      	cbnz	r3, 8000da8 <__sprint_r+0x10>
 8000da0:	4618      	mov	r0, r3
 8000da2:	2300      	movs	r3, #0
 8000da4:	6063      	str	r3, [r4, #4]
 8000da6:	bd10      	pop	{r4, pc}
 8000da8:	f000 fbf6 	bl	8001598 <__sfvwrite_r>
 8000dac:	2300      	movs	r3, #0
 8000dae:	60a3      	str	r3, [r4, #8]
 8000db0:	2300      	movs	r3, #0
 8000db2:	6063      	str	r3, [r4, #4]
 8000db4:	bd10      	pop	{r4, pc}
 8000db6:	bf00      	nop

08000db8 <_vfiprintf_r>:
 8000db8:	e92d 4ff0 	stmdb	sp!, {r4, r5, r6, r7, r8, r9, sl, fp, lr}
 8000dbc:	b0a1      	sub	sp, #132	@ 0x84
 8000dbe:	468b      	mov	fp, r1
 8000dc0:	4691      	mov	r9, r2
 8000dc2:	461c      	mov	r4, r3
 8000dc4:	9004      	str	r0, [sp, #16]
 8000dc6:	b118      	cbz	r0, 8000dd0 <_vfiprintf_r+0x18>
 8000dc8:	6a03      	ldr	r3, [r0, #32]
 8000dca:	2b00      	cmp	r3, #0
 8000dcc:	f000 811c 	beq.w	8001008 <_vfiprintf_r+0x250>
 8000dd0:	f8bb 300c 	ldrh.w	r3, [fp, #12]
 8000dd4:	0718      	lsls	r0, r3, #28
 8000dd6:	f140 8095 	bpl.w	8000f04 <_vfiprintf_r+0x14c>
 8000dda:	f8db 3010 	ldr.w	r3, [fp, #16]
 8000dde:	2b00      	cmp	r3, #0
 8000de0:	f000 8090 	beq.w	8000f04 <_vfiprintf_r+0x14c>
 8000de4:	2300      	movs	r3, #0
 8000de6:	46ca      	mov	sl, r9
 8000de8:	930d      	str	r3, [sp, #52]	@ 0x34
 8000dea:	f243 0320 	movw	r3, #12320	@ 0x3020
 8000dee:	f8ad 3039 	strh.w	r3, [sp, #57]	@ 0x39
 8000df2:	f89a 3000 	ldrb.w	r3, [sl]
 8000df6:	4e86      	ldr	r6, [pc, #536]	@ (8001010 <_vfiprintf_r+0x258>)
 8000df8:	9407      	str	r4, [sp, #28]
 8000dfa:	2701      	movs	r7, #1
 8000dfc:	2b00      	cmp	r3, #0
 8000dfe:	d079      	beq.n	8000ef4 <_vfiprintf_r+0x13c>
 8000e00:	46d1      	mov	r9, sl
 8000e02:	e004      	b.n	8000e0e <_vfiprintf_r+0x56>
 8000e04:	f819 3f01 	ldrb.w	r3, [r9, #1]!
 8000e08:	2b00      	cmp	r3, #0
 8000e0a:	f000 8085 	beq.w	8000f18 <_vfiprintf_r+0x160>
 8000e0e:	2b25      	cmp	r3, #37	@ 0x25
 8000e10:	d1f8      	bne.n	8000e04 <_vfiprintf_r+0x4c>
 8000e12:	ebb9 080a 	subs.w	r8, r9, sl
 8000e16:	f040 8082 	bne.w	8000f1e <_vfiprintf_r+0x166>
 8000e1a:	f899 3000 	ldrb.w	r3, [r9]
 8000e1e:	2b00      	cmp	r3, #0
 8000e20:	d068      	beq.n	8000ef4 <_vfiprintf_r+0x13c>
 8000e22:	2300      	movs	r3, #0
 8000e24:	f04f 32ff 	mov.w	r2, #4294967295	@ 0xffffffff
 8000e28:	e9cd 2309 	strd	r2, r3, [sp, #36]	@ 0x24
 8000e2c:	f109 0901 	add.w	r9, r9, #1
 8000e30:	9308      	str	r3, [sp, #32]
 8000e32:	930b      	str	r3, [sp, #44]	@ 0x2c
 8000e34:	f88d 3063 	strb.w	r3, [sp, #99]	@ 0x63
 8000e38:	931e      	str	r3, [sp, #120]	@ 0x78
 8000e3a:	e005      	b.n	8000e48 <_vfiprintf_r+0x90>
 8000e3c:	9a08      	ldr	r2, [sp, #32]
 8000e3e:	fa07 f303 	lsl.w	r3, r7, r3
 8000e42:	431a      	orrs	r2, r3
 8000e44:	9208      	str	r2, [sp, #32]
 8000e46:	46a1      	mov	r9, r4
 8000e48:	464c      	mov	r4, r9
 8000e4a:	2205      	movs	r2, #5
 8000e4c:	f814 1b01 	ldrb.w	r1, [r4], #1
 8000e50:	4630      	mov	r0, r6
 8000e52:	f000 fdb5 	bl	80019c0 <memchr>
 8000e56:	46a2      	mov	sl, r4
 8000e58:	1b83      	subs	r3, r0, r6
 8000e5a:	2800      	cmp	r0, #0
 8000e5c:	d1ee      	bne.n	8000e3c <_vfiprintf_r+0x84>
 8000e5e:	9b08      	ldr	r3, [sp, #32]
 8000e60:	06d9      	lsls	r1, r3, #27
 8000e62:	bf44      	itt	mi
 8000e64:	2220      	movmi	r2, #32
 8000e66:	f88d 2063 	strbmi.w	r2, [sp, #99]	@ 0x63
 8000e6a:	f899 1000 	ldrb.w	r1, [r9]
 8000e6e:	071a      	lsls	r2, r3, #28
 8000e70:	bf44      	itt	mi
 8000e72:	222b      	movmi	r2, #43	@ 0x2b
 8000e74:	f88d 2063 	strbmi.w	r2, [sp, #99]	@ 0x63
 8000e78:	292a      	cmp	r1, #42	@ 0x2a
 8000e7a:	d166      	bne.n	8000f4a <_vfiprintf_r+0x192>
 8000e7c:	9a07      	ldr	r2, [sp, #28]
 8000e7e:	6811      	ldr	r1, [r2, #0]
 8000e80:	3204      	adds	r2, #4
 8000e82:	2900      	cmp	r1, #0
 8000e84:	9207      	str	r2, [sp, #28]
 8000e86:	f2c0 809a 	blt.w	8000fbe <_vfiprintf_r+0x206>
 8000e8a:	910b      	str	r1, [sp, #44]	@ 0x2c
 8000e8c:	f899 1001 	ldrb.w	r1, [r9, #1]
 8000e90:	292e      	cmp	r1, #46	@ 0x2e
 8000e92:	d070      	beq.n	8000f76 <_vfiprintf_r+0x1be>
 8000e94:	4c5f      	ldr	r4, [pc, #380]	@ (8001014 <_vfiprintf_r+0x25c>)
 8000e96:	2203      	movs	r2, #3
 8000e98:	4620      	mov	r0, r4
 8000e9a:	f000 fd91 	bl	80019c0 <memchr>
 8000e9e:	b138      	cbz	r0, 8000eb0 <_vfiprintf_r+0xf8>
 8000ea0:	9b08      	ldr	r3, [sp, #32]
 8000ea2:	1b00      	subs	r0, r0, r4
 8000ea4:	2240      	movs	r2, #64	@ 0x40
 8000ea6:	4082      	lsls	r2, r0
 8000ea8:	4313      	orrs	r3, r2
 8000eaa:	f10a 0a01 	add.w	sl, sl, #1
 8000eae:	9308      	str	r3, [sp, #32]
 8000eb0:	f81a 1b01 	ldrb.w	r1, [sl], #1
 8000eb4:	4858      	ldr	r0, [pc, #352]	@ (8001018 <_vfiprintf_r+0x260>)
 8000eb6:	f88d 1038 	strb.w	r1, [sp, #56]	@ 0x38
 8000eba:	2206      	movs	r2, #6
 8000ebc:	f000 fd80 	bl	80019c0 <memchr>
 8000ec0:	2800      	cmp	r0, #0
 8000ec2:	f000 8082 	beq.w	8000fca <_vfiprintf_r+0x212>
 8000ec6:	4b55      	ldr	r3, [pc, #340]	@ (800101c <_vfiprintf_r+0x264>)
 8000ec8:	2b00      	cmp	r3, #0
 8000eca:	d069      	beq.n	8000fa0 <_vfiprintf_r+0x1e8>
 8000ecc:	aa07      	add	r2, sp, #28
 8000ece:	9200      	str	r2, [sp, #0]
 8000ed0:	4b53      	ldr	r3, [pc, #332]	@ (8001020 <_vfiprintf_r+0x268>)
 8000ed2:	9804      	ldr	r0, [sp, #16]
 8000ed4:	465a      	mov	r2, fp
 8000ed6:	a908      	add	r1, sp, #32
 8000ed8:	f3af 8000 	nop.w
 8000edc:	9003      	str	r0, [sp, #12]
 8000ede:	9b03      	ldr	r3, [sp, #12]
 8000ee0:	3301      	adds	r3, #1
 8000ee2:	d007      	beq.n	8000ef4 <_vfiprintf_r+0x13c>
 8000ee4:	9b0d      	ldr	r3, [sp, #52]	@ 0x34
 8000ee6:	9a03      	ldr	r2, [sp, #12]
 8000ee8:	4413      	add	r3, r2
 8000eea:	930d      	str	r3, [sp, #52]	@ 0x34
 8000eec:	f89a 3000 	ldrb.w	r3, [sl]
 8000ef0:	2b00      	cmp	r3, #0
 8000ef2:	d185      	bne.n	8000e00 <_vfiprintf_r+0x48>
 8000ef4:	f8bb 300c 	ldrh.w	r3, [fp, #12]
 8000ef8:	065b      	lsls	r3, r3, #25
 8000efa:	d40a      	bmi.n	8000f12 <_vfiprintf_r+0x15a>
 8000efc:	980d      	ldr	r0, [sp, #52]	@ 0x34
 8000efe:	b021      	add	sp, #132	@ 0x84
 8000f00:	e8bd 8ff0 	ldmia.w	sp!, {r4, r5, r6, r7, r8, r9, sl, fp, pc}
 8000f04:	9804      	ldr	r0, [sp, #16]
 8000f06:	4659      	mov	r1, fp
 8000f08:	f7ff fd60 	bl	80009cc <__swsetup_r>
 8000f0c:	2800      	cmp	r0, #0
 8000f0e:	f43f af69 	beq.w	8000de4 <_vfiprintf_r+0x2c>
 8000f12:	f04f 30ff 	mov.w	r0, #4294967295	@ 0xffffffff
 8000f16:	e7f2      	b.n	8000efe <_vfiprintf_r+0x146>
 8000f18:	ebb9 080a 	subs.w	r8, r9, sl
 8000f1c:	d0ea      	beq.n	8000ef4 <_vfiprintf_r+0x13c>
 8000f1e:	f10a 35ff 	add.w	r5, sl, #4294967295	@ 0xffffffff
 8000f22:	f8cd 9014 	str.w	r9, [sp, #20]
 8000f26:	46a9      	mov	r9, r5
 8000f28:	9d04      	ldr	r5, [sp, #16]
 8000f2a:	e001      	b.n	8000f30 <_vfiprintf_r+0x178>
 8000f2c:	45a0      	cmp	r8, r4
 8000f2e:	d93e      	bls.n	8000fae <_vfiprintf_r+0x1f6>
 8000f30:	464c      	mov	r4, r9
 8000f32:	465a      	mov	r2, fp
 8000f34:	f819 1f01 	ldrb.w	r1, [r9, #1]!
 8000f38:	4628      	mov	r0, r5
 8000f3a:	f7ff fef7 	bl	8000d2c <__sfputc_r>
 8000f3e:	3402      	adds	r4, #2
 8000f40:	3001      	adds	r0, #1
 8000f42:	eba4 040a 	sub.w	r4, r4, sl
 8000f46:	d1f1      	bne.n	8000f2c <_vfiprintf_r+0x174>
 8000f48:	e7d4      	b.n	8000ef4 <_vfiprintf_r+0x13c>
 8000f4a:	f1a1 0230 	sub.w	r2, r1, #48	@ 0x30
 8000f4e:	2a09      	cmp	r2, #9
 8000f50:	bf88      	it	hi
 8000f52:	46ca      	movhi	sl, r9
 8000f54:	d89c      	bhi.n	8000e90 <_vfiprintf_r+0xd8>
 8000f56:	9b0b      	ldr	r3, [sp, #44]	@ 0x2c
 8000f58:	e000      	b.n	8000f5c <_vfiprintf_r+0x1a4>
 8000f5a:	3401      	adds	r4, #1
 8000f5c:	7821      	ldrb	r1, [r4, #0]
 8000f5e:	eb03 0383 	add.w	r3, r3, r3, lsl #2
 8000f62:	eb02 0343 	add.w	r3, r2, r3, lsl #1
 8000f66:	f1a1 0230 	sub.w	r2, r1, #48	@ 0x30
 8000f6a:	2a09      	cmp	r2, #9
 8000f6c:	d9f5      	bls.n	8000f5a <_vfiprintf_r+0x1a2>
 8000f6e:	292e      	cmp	r1, #46	@ 0x2e
 8000f70:	930b      	str	r3, [sp, #44]	@ 0x2c
 8000f72:	46a2      	mov	sl, r4
 8000f74:	d18e      	bne.n	8000e94 <_vfiprintf_r+0xdc>
 8000f76:	f89a 1001 	ldrb.w	r1, [sl, #1]
 8000f7a:	292a      	cmp	r1, #42	@ 0x2a
 8000f7c:	d12f      	bne.n	8000fde <_vfiprintf_r+0x226>
 8000f7e:	9b07      	ldr	r3, [sp, #28]
 8000f80:	f89a 1002 	ldrb.w	r1, [sl, #2]
 8000f84:	681a      	ldr	r2, [r3, #0]
 8000f86:	9209      	str	r2, [sp, #36]	@ 0x24
 8000f88:	3304      	adds	r3, #4
 8000f8a:	2a00      	cmp	r2, #0
 8000f8c:	f10a 0002 	add.w	r0, sl, #2
 8000f90:	9307      	str	r3, [sp, #28]
 8000f92:	bfb8      	it	lt
 8000f94:	f04f 33ff 	movlt.w	r3, #4294967295	@ 0xffffffff
 8000f98:	4682      	mov	sl, r0
 8000f9a:	bfb8      	it	lt
 8000f9c:	9309      	strlt	r3, [sp, #36]	@ 0x24
 8000f9e:	e779      	b.n	8000e94 <_vfiprintf_r+0xdc>
 8000fa0:	9b07      	ldr	r3, [sp, #28]
 8000fa2:	3307      	adds	r3, #7
 8000fa4:	f023 0307 	bic.w	r3, r3, #7
 8000fa8:	3308      	adds	r3, #8
 8000faa:	9307      	str	r3, [sp, #28]
 8000fac:	e79a      	b.n	8000ee4 <_vfiprintf_r+0x12c>
 8000fae:	990d      	ldr	r1, [sp, #52]	@ 0x34
 8000fb0:	f8dd 9014 	ldr.w	r9, [sp, #20]
 8000fb4:	4441      	add	r1, r8
 8000fb6:	f899 3000 	ldrb.w	r3, [r9]
 8000fba:	910d      	str	r1, [sp, #52]	@ 0x34
 8000fbc:	e72f      	b.n	8000e1e <_vfiprintf_r+0x66>
 8000fbe:	4249      	negs	r1, r1
 8000fc0:	f043 0302 	orr.w	r3, r3, #2
 8000fc4:	910b      	str	r1, [sp, #44]	@ 0x2c
 8000fc6:	9308      	str	r3, [sp, #32]
 8000fc8:	e760      	b.n	8000e8c <_vfiprintf_r+0xd4>
 8000fca:	aa07      	add	r2, sp, #28
 8000fcc:	9200      	str	r2, [sp, #0]
 8000fce:	4b14      	ldr	r3, [pc, #80]	@ (8001020 <_vfiprintf_r+0x268>)
 8000fd0:	9804      	ldr	r0, [sp, #16]
 8000fd2:	465a      	mov	r2, fp
 8000fd4:	a908      	add	r1, sp, #32
 8000fd6:	f000 feb7 	bl	8001d48 <_printf_i>
 8000fda:	9003      	str	r0, [sp, #12]
 8000fdc:	e77f      	b.n	8000ede <_vfiprintf_r+0x126>
 8000fde:	f1a1 0230 	sub.w	r2, r1, #48	@ 0x30
 8000fe2:	2300      	movs	r3, #0
 8000fe4:	2a09      	cmp	r2, #9
 8000fe6:	9309      	str	r3, [sp, #36]	@ 0x24
 8000fe8:	f10a 0a01 	add.w	sl, sl, #1
 8000fec:	f63f af52 	bhi.w	8000e94 <_vfiprintf_r+0xdc>
 8000ff0:	f81a 1f01 	ldrb.w	r1, [sl, #1]!
 8000ff4:	eb03 0383 	add.w	r3, r3, r3, lsl #2
 8000ff8:	eb02 0343 	add.w	r3, r2, r3, lsl #1
 8000ffc:	f1a1 0230 	sub.w	r2, r1, #48	@ 0x30
 8001000:	2a09      	cmp	r2, #9
 8001002:	d9f5      	bls.n	8000ff0 <_vfiprintf_r+0x238>
 8001004:	9309      	str	r3, [sp, #36]	@ 0x24
 8001006:	e745      	b.n	8000e94 <_vfiprintf_r+0xdc>
 8001008:	f7ff fa68 	bl	80004dc <__sinit>
 800100c:	e6e0      	b.n	8000dd0 <_vfiprintf_r+0x18>
 800100e:	bf00      	nop
 8001010:	08002660 	.word	0x08002660
 8001014:	08002668 	.word	0x08002668
 8001018:	0800266c 	.word	0x0800266c
 800101c:	00000000 	.word	0x00000000
 8001020:	08000d69 	.word	0x08000d69

08001024 <vfiprintf>:
 8001024:	b410      	push	{r4}
 8001026:	4c05      	ldr	r4, [pc, #20]	@ (800103c <vfiprintf+0x18>)
 8001028:	4684      	mov	ip, r0
 800102a:	4613      	mov	r3, r2
 800102c:	6820      	ldr	r0, [r4, #0]
 800102e:	f85d 4b04 	ldr.w	r4, [sp], #4
 8001032:	460a      	mov	r2, r1
 8001034:	4661      	mov	r1, ip
 8001036:	f7ff bebf 	b.w	8000db8 <_vfiprintf_r>
 800103a:	bf00      	nop
 800103c:	2000000c 	.word	0x2000000c

08001040 <__swbuf_r>:
 8001040:	b5f8      	push	{r3, r4, r5, r6, r7, lr}
 8001042:	460d      	mov	r5, r1
 8001044:	4614      	mov	r4, r2
 8001046:	4606      	mov	r6, r0
 8001048:	b110      	cbz	r0, 8001050 <__swbuf_r+0x10>
 800104a:	6a03      	ldr	r3, [r0, #32]
 800104c:	2b00      	cmp	r3, #0
 800104e:	d037      	beq.n	80010c0 <__swbuf_r+0x80>
 8001050:	89a3      	ldrh	r3, [r4, #12]
 8001052:	69a2      	ldr	r2, [r4, #24]
 8001054:	60a2      	str	r2, [r4, #8]
 8001056:	071a      	lsls	r2, r3, #28
 8001058:	d519      	bpl.n	800108e <__swbuf_r+0x4e>
 800105a:	6923      	ldr	r3, [r4, #16]
 800105c:	b1bb      	cbz	r3, 800108e <__swbuf_r+0x4e>
 800105e:	6822      	ldr	r2, [r4, #0]
 8001060:	6961      	ldr	r1, [r4, #20]
 8001062:	1ad3      	subs	r3, r2, r3
 8001064:	b2ed      	uxtb	r5, r5
 8001066:	4299      	cmp	r1, r3
 8001068:	462f      	mov	r7, r5
 800106a:	dd20      	ble.n	80010ae <__swbuf_r+0x6e>
 800106c:	3301      	adds	r3, #1
 800106e:	68a1      	ldr	r1, [r4, #8]
 8001070:	3901      	subs	r1, #1
 8001072:	60a1      	str	r1, [r4, #8]
 8001074:	1c51      	adds	r1, r2, #1
 8001076:	6021      	str	r1, [r4, #0]
 8001078:	7015      	strb	r5, [r2, #0]
 800107a:	6962      	ldr	r2, [r4, #20]
 800107c:	429a      	cmp	r2, r3
 800107e:	d00d      	beq.n	800109c <__swbuf_r+0x5c>
 8001080:	89a3      	ldrh	r3, [r4, #12]
 8001082:	07db      	lsls	r3, r3, #31
 8001084:	d501      	bpl.n	800108a <__swbuf_r+0x4a>
 8001086:	2d0a      	cmp	r5, #10
 8001088:	d008      	beq.n	800109c <__swbuf_r+0x5c>
 800108a:	4638      	mov	r0, r7
 800108c:	bdf8      	pop	{r3, r4, r5, r6, r7, pc}
 800108e:	4621      	mov	r1, r4
 8001090:	4630      	mov	r0, r6
 8001092:	f7ff fc9b 	bl	80009cc <__swsetup_r>
 8001096:	b938      	cbnz	r0, 80010a8 <__swbuf_r+0x68>
 8001098:	6923      	ldr	r3, [r4, #16]
 800109a:	e7e0      	b.n	800105e <__swbuf_r+0x1e>
 800109c:	4621      	mov	r1, r4
 800109e:	4630      	mov	r0, r6
 80010a0:	f7ff fb28 	bl	80006f4 <_fflush_r>
 80010a4:	2800      	cmp	r0, #0
 80010a6:	d0f0      	beq.n	800108a <__swbuf_r+0x4a>
 80010a8:	f04f 37ff 	mov.w	r7, #4294967295	@ 0xffffffff
 80010ac:	e7ed      	b.n	800108a <__swbuf_r+0x4a>
 80010ae:	4621      	mov	r1, r4
 80010b0:	4630      	mov	r0, r6
 80010b2:	f7ff fb1f 	bl	80006f4 <_fflush_r>
 80010b6:	2800      	cmp	r0, #0
 80010b8:	d1f6      	bne.n	80010a8 <__swbuf_r+0x68>
 80010ba:	6822      	ldr	r2, [r4, #0]
 80010bc:	2301      	movs	r3, #1
 80010be:	e7d6      	b.n	800106e <__swbuf_r+0x2e>
 80010c0:	f7ff fa0c 	bl	80004dc <__sinit>
 80010c4:	e7c4      	b.n	8001050 <__swbuf_r+0x10>
 80010c6:	bf00      	nop

080010c8 <__swbuf>:
 80010c8:	b410      	push	{r4}
 80010ca:	4c04      	ldr	r4, [pc, #16]	@ (80010dc <__swbuf+0x14>)
 80010cc:	4603      	mov	r3, r0
 80010ce:	460a      	mov	r2, r1
 80010d0:	6820      	ldr	r0, [r4, #0]
 80010d2:	f85d 4b04 	ldr.w	r4, [sp], #4
 80010d6:	4619      	mov	r1, r3
 80010d8:	f7ff bfb2 	b.w	8001040 <__swbuf_r>
 80010dc:	2000000c 	.word	0x2000000c

080010e0 <_sbrk_r>:
 80010e0:	b538      	push	{r3, r4, r5, lr}
 80010e2:	4d07      	ldr	r5, [pc, #28]	@ (8001100 <_sbrk_r+0x20>)
 80010e4:	2200      	movs	r2, #0
 80010e6:	4604      	mov	r4, r0
 80010e8:	4608      	mov	r0, r1
 80010ea:	602a      	str	r2, [r5, #0]
 80010ec:	f001 f9f8 	bl	80024e0 <_sbrk>
 80010f0:	1c43      	adds	r3, r0, #1
 80010f2:	d000      	beq.n	80010f6 <_sbrk_r+0x16>
 80010f4:	bd38      	pop	{r3, r4, r5, pc}
 80010f6:	682b      	ldr	r3, [r5, #0]
 80010f8:	2b00      	cmp	r3, #0
 80010fa:	d0fb      	beq.n	80010f4 <_sbrk_r+0x14>
 80010fc:	6023      	str	r3, [r4, #0]
 80010fe:	bd38      	pop	{r3, r4, r5, pc}
 8001100:	200001cc 	.word	0x200001cc

08001104 <__sread>:
 8001104:	b510      	push	{r4, lr}
 8001106:	460c      	mov	r4, r1
 8001108:	f9b1 100e 	ldrsh.w	r1, [r1, #14]
 800110c:	f000 fd42 	bl	8001b94 <_read_r>
 8001110:	2800      	cmp	r0, #0
 8001112:	db03      	blt.n	800111c <__sread+0x18>
 8001114:	6d63      	ldr	r3, [r4, #84]	@ 0x54
 8001116:	4403      	add	r3, r0
 8001118:	6563      	str	r3, [r4, #84]	@ 0x54
 800111a:	bd10      	pop	{r4, pc}
 800111c:	89a3      	ldrh	r3, [r4, #12]
 800111e:	f423 5380 	bic.w	r3, r3, #4096	@ 0x1000
 8001122:	81a3      	strh	r3, [r4, #12]
 8001124:	bd10      	pop	{r4, pc}
 8001126:	bf00      	nop

08001128 <__seofread>:
 8001128:	2000      	movs	r0, #0
 800112a:	4770      	bx	lr

0800112c <__swrite>:
 800112c:	e92d 41f0 	stmdb	sp!, {r4, r5, r6, r7, r8, lr}
 8001130:	460c      	mov	r4, r1
 8001132:	f9b1 100c 	ldrsh.w	r1, [r1, #12]
 8001136:	461f      	mov	r7, r3
 8001138:	05cb      	lsls	r3, r1, #23
 800113a:	4605      	mov	r5, r0
 800113c:	4616      	mov	r6, r2
 800113e:	d40b      	bmi.n	8001158 <__swrite+0x2c>
 8001140:	f421 5180 	bic.w	r1, r1, #4096	@ 0x1000
 8001144:	81a1      	strh	r1, [r4, #12]
 8001146:	463b      	mov	r3, r7
 8001148:	f9b4 100e 	ldrsh.w	r1, [r4, #14]
 800114c:	4632      	mov	r2, r6
 800114e:	4628      	mov	r0, r5
 8001150:	e8bd 41f0 	ldmia.w	sp!, {r4, r5, r6, r7, r8, lr}
 8001154:	f000 bf66 	b.w	8002024 <_write_r>
 8001158:	f9b4 100e 	ldrsh.w	r1, [r4, #14]
 800115c:	2302      	movs	r3, #2
 800115e:	2200      	movs	r2, #0
 8001160:	f000 ff4a 	bl	8001ff8 <_lseek_r>
 8001164:	f9b4 100c 	ldrsh.w	r1, [r4, #12]
 8001168:	e7ea      	b.n	8001140 <__swrite+0x14>
 800116a:	bf00      	nop

0800116c <__sseek>:
 800116c:	b510      	push	{r4, lr}
 800116e:	460c      	mov	r4, r1
 8001170:	f9b1 100e 	ldrsh.w	r1, [r1, #14]
 8001174:	f000 ff40 	bl	8001ff8 <_lseek_r>
 8001178:	f9b4 300c 	ldrsh.w	r3, [r4, #12]
 800117c:	1c42      	adds	r2, r0, #1
 800117e:	bf0e      	itee	eq
 8001180:	f423 5380 	biceq.w	r3, r3, #4096	@ 0x1000
 8001184:	f443 5380 	orrne.w	r3, r3, #4096	@ 0x1000
 8001188:	6560      	strne	r0, [r4, #84]	@ 0x54
 800118a:	81a3      	strh	r3, [r4, #12]
 800118c:	bd10      	pop	{r4, pc}
 800118e:	bf00      	nop

08001190 <__sclose>:
 8001190:	f9b1 100e 	ldrsh.w	r1, [r1, #14]
 8001194:	f000 bb80 	b.w	8001898 <_close_r>

08001198 <__ssputs_r>:
 8001198:	e92d 47f0 	stmdb	sp!, {r4, r5, r6, r7, r8, r9, sl, lr}
 800119c:	688f      	ldr	r7, [r1, #8]
 800119e:	461d      	mov	r5, r3
 80011a0:	42af      	cmp	r7, r5
 80011a2:	680b      	ldr	r3, [r1, #0]
 80011a4:	460c      	mov	r4, r1
 80011a6:	4616      	mov	r6, r2
 80011a8:	d836      	bhi.n	8001218 <__ssputs_r+0x80>
 80011aa:	f9b1 c00c 	ldrsh.w	ip, [r1, #12]
 80011ae:	f41c 6f90 	tst.w	ip, #1152	@ 0x480
 80011b2:	d10e      	bne.n	80011d2 <__ssputs_r+0x3a>
 80011b4:	463d      	mov	r5, r7
 80011b6:	4618      	mov	r0, r3
 80011b8:	4631      	mov	r1, r6
 80011ba:	462a      	mov	r2, r5
 80011bc:	f000 fb7e 	bl	80018bc <memmove>
 80011c0:	68a3      	ldr	r3, [r4, #8]
 80011c2:	1bdf      	subs	r7, r3, r7
 80011c4:	6823      	ldr	r3, [r4, #0]
 80011c6:	60a7      	str	r7, [r4, #8]
 80011c8:	442b      	add	r3, r5
 80011ca:	2000      	movs	r0, #0
 80011cc:	6023      	str	r3, [r4, #0]
 80011ce:	e8bd 87f0 	ldmia.w	sp!, {r4, r5, r6, r7, r8, r9, sl, pc}
 80011d2:	694a      	ldr	r2, [r1, #20]
 80011d4:	6909      	ldr	r1, [r1, #16]
 80011d6:	eb02 0242 	add.w	r2, r2, r2, lsl #1
 80011da:	1a5f      	subs	r7, r3, r1
 80011dc:	eb02 72d2 	add.w	r2, r2, r2, lsr #31
 80011e0:	1c6b      	adds	r3, r5, #1
 80011e2:	1052      	asrs	r2, r2, #1
 80011e4:	443b      	add	r3, r7
 80011e6:	4293      	cmp	r3, r2
 80011e8:	bf92      	itee	ls
 80011ea:	4691      	movls	r9, r2
 80011ec:	4699      	movhi	r9, r3
 80011ee:	461a      	movhi	r2, r3
 80011f0:	f41c 6f80 	tst.w	ip, #1024	@ 0x400
 80011f4:	4680      	mov	r8, r0
 80011f6:	d011      	beq.n	800121c <__ssputs_r+0x84>
 80011f8:	4611      	mov	r1, r2
 80011fa:	f7ff fae7 	bl	80007cc <_malloc_r>
 80011fe:	4682      	mov	sl, r0
 8001200:	b300      	cbz	r0, 8001244 <__ssputs_r+0xac>
 8001202:	6921      	ldr	r1, [r4, #16]
 8001204:	463a      	mov	r2, r7
 8001206:	f000 fc2b 	bl	8001a60 <memcpy>
 800120a:	89a3      	ldrh	r3, [r4, #12]
 800120c:	f423 6390 	bic.w	r3, r3, #1152	@ 0x480
 8001210:	f043 0380 	orr.w	r3, r3, #128	@ 0x80
 8001214:	81a3      	strh	r3, [r4, #12]
 8001216:	e005      	b.n	8001224 <__ssputs_r+0x8c>
 8001218:	462f      	mov	r7, r5
 800121a:	e7cc      	b.n	80011b6 <__ssputs_r+0x1e>
 800121c:	f000 fcd0 	bl	8001bc0 <_realloc_r>
 8001220:	4682      	mov	sl, r0
 8001222:	b158      	cbz	r0, 800123c <__ssputs_r+0xa4>
 8001224:	eb0a 0307 	add.w	r3, sl, r7
 8001228:	eba9 0707 	sub.w	r7, r9, r7
 800122c:	60a7      	str	r7, [r4, #8]
 800122e:	f8c4 a010 	str.w	sl, [r4, #16]
 8001232:	f8c4 9014 	str.w	r9, [r4, #20]
 8001236:	6023      	str	r3, [r4, #0]
 8001238:	462f      	mov	r7, r5
 800123a:	e7bc      	b.n	80011b6 <__ssputs_r+0x1e>
 800123c:	6921      	ldr	r1, [r4, #16]
 800123e:	4640      	mov	r0, r8
 8001240:	f7ff fb44 	bl	80008cc <_free_r>
 8001244:	89a3      	ldrh	r3, [r4, #12]
 8001246:	220c      	movs	r2, #12
 8001248:	f043 0340 	orr.w	r3, r3, #64	@ 0x40
 800124c:	f8c8 2000 	str.w	r2, [r8]
 8001250:	f04f 30ff 	mov.w	r0, #4294967295	@ 0xffffffff
 8001254:	81a3      	strh	r3, [r4, #12]
 8001256:	e7ba      	b.n	80011ce <__ssputs_r+0x36>

08001258 <__ssprint_r>:
 8001258:	e92d 4ff0 	stmdb	sp!, {r4, r5, r6, r7, r8, r9, sl, fp, lr}
 800125c:	6893      	ldr	r3, [r2, #8]
 800125e:	6817      	ldr	r7, [r2, #0]
 8001260:	b083      	sub	sp, #12
 8001262:	4692      	mov	sl, r2
 8001264:	2b00      	cmp	r3, #0
 8001266:	d074      	beq.n	8001352 <__ssprint_r+0xfa>
 8001268:	f04f 0b00 	mov.w	fp, #0
 800126c:	688b      	ldr	r3, [r1, #8]
 800126e:	680a      	ldr	r2, [r1, #0]
 8001270:	4681      	mov	r9, r0
 8001272:	460c      	mov	r4, r1
 8001274:	465d      	mov	r5, fp
 8001276:	e045      	b.n	8001304 <__ssprint_r+0xac>
 8001278:	f9b4 300c 	ldrsh.w	r3, [r4, #12]
 800127c:	f413 6f90 	tst.w	r3, #1152	@ 0x480
 8001280:	d02c      	beq.n	80012dc <__ssprint_r+0x84>
 8001282:	e9d4 0104 	ldrd	r0, r1, [r4, #16]
 8001286:	1a16      	subs	r6, r2, r0
 8001288:	eb01 0241 	add.w	r2, r1, r1, lsl #1
 800128c:	eb02 72d2 	add.w	r2, r2, r2, lsr #31
 8001290:	1c71      	adds	r1, r6, #1
 8001292:	1052      	asrs	r2, r2, #1
 8001294:	4429      	add	r1, r5
 8001296:	4291      	cmp	r1, r2
 8001298:	bf92      	itee	ls
 800129a:	4690      	movls	r8, r2
 800129c:	4688      	movhi	r8, r1
 800129e:	460a      	movhi	r2, r1
 80012a0:	055b      	lsls	r3, r3, #21
 80012a2:	d539      	bpl.n	8001318 <__ssprint_r+0xc0>
 80012a4:	4611      	mov	r1, r2
 80012a6:	4648      	mov	r0, r9
 80012a8:	f7ff fa90 	bl	80007cc <_malloc_r>
 80012ac:	9001      	str	r0, [sp, #4]
 80012ae:	2800      	cmp	r0, #0
 80012b0:	d03d      	beq.n	800132e <__ssprint_r+0xd6>
 80012b2:	4632      	mov	r2, r6
 80012b4:	6921      	ldr	r1, [r4, #16]
 80012b6:	f000 fbd3 	bl	8001a60 <memcpy>
 80012ba:	89a2      	ldrh	r2, [r4, #12]
 80012bc:	9b01      	ldr	r3, [sp, #4]
 80012be:	f422 6290 	bic.w	r2, r2, #1152	@ 0x480
 80012c2:	f042 0280 	orr.w	r2, r2, #128	@ 0x80
 80012c6:	81a2      	strh	r2, [r4, #12]
 80012c8:	1998      	adds	r0, r3, r6
 80012ca:	eba8 0606 	sub.w	r6, r8, r6
 80012ce:	60a6      	str	r6, [r4, #8]
 80012d0:	f8c4 8014 	str.w	r8, [r4, #20]
 80012d4:	6123      	str	r3, [r4, #16]
 80012d6:	6020      	str	r0, [r4, #0]
 80012d8:	46a8      	mov	r8, r5
 80012da:	462e      	mov	r6, r5
 80012dc:	4632      	mov	r2, r6
 80012de:	4659      	mov	r1, fp
 80012e0:	f000 faec 	bl	80018bc <memmove>
 80012e4:	f8da 1008 	ldr.w	r1, [sl, #8]
 80012e8:	68a3      	ldr	r3, [r4, #8]
 80012ea:	6822      	ldr	r2, [r4, #0]
 80012ec:	eba3 0308 	sub.w	r3, r3, r8
 80012f0:	4432      	add	r2, r6
 80012f2:	1b49      	subs	r1, r1, r5
 80012f4:	60a3      	str	r3, [r4, #8]
 80012f6:	6022      	str	r2, [r4, #0]
 80012f8:	f8ca 1008 	str.w	r1, [sl, #8]
 80012fc:	b349      	cbz	r1, 8001352 <__ssprint_r+0xfa>
 80012fe:	e9d7 b500 	ldrd	fp, r5, [r7]
 8001302:	3708      	adds	r7, #8
 8001304:	4698      	mov	r8, r3
 8001306:	4610      	mov	r0, r2
 8001308:	2d00      	cmp	r5, #0
 800130a:	d0f8      	beq.n	80012fe <__ssprint_r+0xa6>
 800130c:	429d      	cmp	r5, r3
 800130e:	461e      	mov	r6, r3
 8001310:	d2b2      	bcs.n	8001278 <__ssprint_r+0x20>
 8001312:	46a8      	mov	r8, r5
 8001314:	462e      	mov	r6, r5
 8001316:	e7e1      	b.n	80012dc <__ssprint_r+0x84>
 8001318:	4601      	mov	r1, r0
 800131a:	4648      	mov	r0, r9
 800131c:	f000 fc50 	bl	8001bc0 <_realloc_r>
 8001320:	4603      	mov	r3, r0
 8001322:	2800      	cmp	r0, #0
 8001324:	d1d0      	bne.n	80012c8 <__ssprint_r+0x70>
 8001326:	6921      	ldr	r1, [r4, #16]
 8001328:	4648      	mov	r0, r9
 800132a:	f7ff facf 	bl	80008cc <_free_r>
 800132e:	89a3      	ldrh	r3, [r4, #12]
 8001330:	220c      	movs	r2, #12
 8001332:	f043 0340 	orr.w	r3, r3, #64	@ 0x40
 8001336:	f8c9 2000 	str.w	r2, [r9]
 800133a:	f04f 30ff 	mov.w	r0, #4294967295	@ 0xffffffff
 800133e:	81a3      	strh	r3, [r4, #12]
 8001340:	2200      	movs	r2, #0
 8001342:	2300      	movs	r3, #0
 8001344:	f8ca 2008 	str.w	r2, [sl, #8]
 8001348:	f8ca 3004 	str.w	r3, [sl, #4]
 800134c:	b003      	add	sp, #12
 800134e:	e8bd 8ff0 	ldmia.w	sp!, {r4, r5, r6, r7, r8, r9, sl, fp, pc}
 8001352:	2000      	movs	r0, #0
 8001354:	2300      	movs	r3, #0
 8001356:	f8ca 3004 	str.w	r3, [sl, #4]
 800135a:	b003      	add	sp, #12
 800135c:	e8bd 8ff0 	ldmia.w	sp!, {r4, r5, r6, r7, r8, r9, sl, fp, pc}

08001360 <_svfiprintf_r>:
 8001360:	e92d 4ff0 	stmdb	sp!, {r4, r5, r6, r7, r8, r9, sl, fp, lr}
 8001364:	461c      	mov	r4, r3
 8001366:	898b      	ldrh	r3, [r1, #12]
 8001368:	061d      	lsls	r5, r3, #24
 800136a:	b09d      	sub	sp, #116	@ 0x74
 800136c:	4688      	mov	r8, r1
 800136e:	4681      	mov	r9, r0
 8001370:	4693      	mov	fp, r2
 8001372:	d503      	bpl.n	800137c <_svfiprintf_r+0x1c>
 8001374:	690b      	ldr	r3, [r1, #16]
 8001376:	2b00      	cmp	r3, #0
 8001378:	f000 80f1 	beq.w	800155e <_svfiprintf_r+0x1fe>
 800137c:	2300      	movs	r3, #0
 800137e:	9309      	str	r3, [sp, #36]	@ 0x24
 8001380:	f243 0320 	movw	r3, #12320	@ 0x3020
 8001384:	f8ad 3029 	strh.w	r3, [sp, #41]	@ 0x29
 8001388:	f89b 3000 	ldrb.w	r3, [fp]
 800138c:	4d7d      	ldr	r5, [pc, #500]	@ (8001584 <_svfiprintf_r+0x224>)
 800138e:	9403      	str	r4, [sp, #12]
 8001390:	2601      	movs	r6, #1
 8001392:	2b00      	cmp	r3, #0
 8001394:	d073      	beq.n	800147e <_svfiprintf_r+0x11e>
 8001396:	46da      	mov	sl, fp
 8001398:	e003      	b.n	80013a2 <_svfiprintf_r+0x42>
 800139a:	f81a 3f01 	ldrb.w	r3, [sl, #1]!
 800139e:	2b00      	cmp	r3, #0
 80013a0:	d075      	beq.n	800148e <_svfiprintf_r+0x12e>
 80013a2:	2b25      	cmp	r3, #37	@ 0x25
 80013a4:	d1f9      	bne.n	800139a <_svfiprintf_r+0x3a>
 80013a6:	ebba 040b 	subs.w	r4, sl, fp
 80013aa:	d173      	bne.n	8001494 <_svfiprintf_r+0x134>
 80013ac:	f89a 2000 	ldrb.w	r2, [sl]
 80013b0:	2a00      	cmp	r2, #0
 80013b2:	d064      	beq.n	800147e <_svfiprintf_r+0x11e>
 80013b4:	2300      	movs	r3, #0
 80013b6:	f04f 32ff 	mov.w	r2, #4294967295	@ 0xffffffff
 80013ba:	e9cd 2305 	strd	r2, r3, [sp, #20]
 80013be:	f10a 0a01 	add.w	sl, sl, #1
 80013c2:	9304      	str	r3, [sp, #16]
 80013c4:	9307      	str	r3, [sp, #28]
 80013c6:	f88d 3053 	strb.w	r3, [sp, #83]	@ 0x53
 80013ca:	931a      	str	r3, [sp, #104]	@ 0x68
 80013cc:	e005      	b.n	80013da <_svfiprintf_r+0x7a>
 80013ce:	9a04      	ldr	r2, [sp, #16]
 80013d0:	fa06 f303 	lsl.w	r3, r6, r3
 80013d4:	431a      	orrs	r2, r3
 80013d6:	9204      	str	r2, [sp, #16]
 80013d8:	46a2      	mov	sl, r4
 80013da:	4654      	mov	r4, sl
 80013dc:	2205      	movs	r2, #5
 80013de:	f814 1b01 	ldrb.w	r1, [r4], #1
 80013e2:	4628      	mov	r0, r5
 80013e4:	f000 faec 	bl	80019c0 <memchr>
 80013e8:	46a3      	mov	fp, r4
 80013ea:	1b43      	subs	r3, r0, r5
 80013ec:	2800      	cmp	r0, #0
 80013ee:	d1ee      	bne.n	80013ce <_svfiprintf_r+0x6e>
 80013f0:	9b04      	ldr	r3, [sp, #16]
 80013f2:	06d8      	lsls	r0, r3, #27
 80013f4:	bf44      	itt	mi
 80013f6:	2220      	movmi	r2, #32
 80013f8:	f88d 2053 	strbmi.w	r2, [sp, #83]	@ 0x53
 80013fc:	0719      	lsls	r1, r3, #28
 80013fe:	f89a 1000 	ldrb.w	r1, [sl]
 8001402:	bf44      	itt	mi
 8001404:	222b      	movmi	r2, #43	@ 0x2b
 8001406:	f88d 2053 	strbmi.w	r2, [sp, #83]	@ 0x53
 800140a:	292a      	cmp	r1, #42	@ 0x2a
 800140c:	d150      	bne.n	80014b0 <_svfiprintf_r+0x150>
 800140e:	9a03      	ldr	r2, [sp, #12]
 8001410:	6811      	ldr	r1, [r2, #0]
 8001412:	3204      	adds	r2, #4
 8001414:	2900      	cmp	r1, #0
 8001416:	9203      	str	r2, [sp, #12]
 8001418:	db7c      	blt.n	8001514 <_svfiprintf_r+0x1b4>
 800141a:	9107      	str	r1, [sp, #28]
 800141c:	f89a 1001 	ldrb.w	r1, [sl, #1]
 8001420:	292e      	cmp	r1, #46	@ 0x2e
 8001422:	d05b      	beq.n	80014dc <_svfiprintf_r+0x17c>
 8001424:	4c58      	ldr	r4, [pc, #352]	@ (8001588 <_svfiprintf_r+0x228>)
 8001426:	2203      	movs	r2, #3
 8001428:	4620      	mov	r0, r4
 800142a:	f000 fac9 	bl	80019c0 <memchr>
 800142e:	b138      	cbz	r0, 8001440 <_svfiprintf_r+0xe0>
 8001430:	9b04      	ldr	r3, [sp, #16]
 8001432:	1b00      	subs	r0, r0, r4
 8001434:	2240      	movs	r2, #64	@ 0x40
 8001436:	4082      	lsls	r2, r0
 8001438:	4313      	orrs	r3, r2
 800143a:	f10b 0b01 	add.w	fp, fp, #1
 800143e:	9304      	str	r3, [sp, #16]
 8001440:	f81b 1b01 	ldrb.w	r1, [fp], #1
 8001444:	4851      	ldr	r0, [pc, #324]	@ (800158c <_svfiprintf_r+0x22c>)
 8001446:	f88d 1028 	strb.w	r1, [sp, #40]	@ 0x28
 800144a:	2206      	movs	r2, #6
 800144c:	f000 fab8 	bl	80019c0 <memchr>
 8001450:	2800      	cmp	r0, #0
 8001452:	d065      	beq.n	8001520 <_svfiprintf_r+0x1c0>
 8001454:	4b4e      	ldr	r3, [pc, #312]	@ (8001590 <_svfiprintf_r+0x230>)
 8001456:	2b00      	cmp	r3, #0
 8001458:	d055      	beq.n	8001506 <_svfiprintf_r+0x1a6>
 800145a:	aa03      	add	r2, sp, #12
 800145c:	9200      	str	r2, [sp, #0]
 800145e:	4b4d      	ldr	r3, [pc, #308]	@ (8001594 <_svfiprintf_r+0x234>)
 8001460:	4642      	mov	r2, r8
 8001462:	a904      	add	r1, sp, #16
 8001464:	4648      	mov	r0, r9
 8001466:	f3af 8000 	nop.w
 800146a:	4607      	mov	r7, r0
 800146c:	1c7a      	adds	r2, r7, #1
 800146e:	d006      	beq.n	800147e <_svfiprintf_r+0x11e>
 8001470:	9b09      	ldr	r3, [sp, #36]	@ 0x24
 8001472:	443b      	add	r3, r7
 8001474:	9309      	str	r3, [sp, #36]	@ 0x24
 8001476:	f89b 3000 	ldrb.w	r3, [fp]
 800147a:	2b00      	cmp	r3, #0
 800147c:	d18b      	bne.n	8001396 <_svfiprintf_r+0x36>
 800147e:	f8b8 300c 	ldrh.w	r3, [r8, #12]
 8001482:	065b      	lsls	r3, r3, #25
 8001484:	d47a      	bmi.n	800157c <_svfiprintf_r+0x21c>
 8001486:	9809      	ldr	r0, [sp, #36]	@ 0x24
 8001488:	b01d      	add	sp, #116	@ 0x74
 800148a:	e8bd 8ff0 	ldmia.w	sp!, {r4, r5, r6, r7, r8, r9, sl, fp, pc}
 800148e:	ebba 040b 	subs.w	r4, sl, fp
 8001492:	d0f4      	beq.n	800147e <_svfiprintf_r+0x11e>
 8001494:	4623      	mov	r3, r4
 8001496:	465a      	mov	r2, fp
 8001498:	4641      	mov	r1, r8
 800149a:	4648      	mov	r0, r9
 800149c:	f7ff fe7c 	bl	8001198 <__ssputs_r>
 80014a0:	3001      	adds	r0, #1
 80014a2:	d0ec      	beq.n	800147e <_svfiprintf_r+0x11e>
 80014a4:	9b09      	ldr	r3, [sp, #36]	@ 0x24
 80014a6:	f89a 2000 	ldrb.w	r2, [sl]
 80014aa:	4423      	add	r3, r4
 80014ac:	9309      	str	r3, [sp, #36]	@ 0x24
 80014ae:	e77f      	b.n	80013b0 <_svfiprintf_r+0x50>
 80014b0:	f1a1 0230 	sub.w	r2, r1, #48	@ 0x30
 80014b4:	2a09      	cmp	r2, #9
 80014b6:	bf88      	it	hi
 80014b8:	46d3      	movhi	fp, sl
 80014ba:	d8b1      	bhi.n	8001420 <_svfiprintf_r+0xc0>
 80014bc:	9b07      	ldr	r3, [sp, #28]
 80014be:	e000      	b.n	80014c2 <_svfiprintf_r+0x162>
 80014c0:	3401      	adds	r4, #1
 80014c2:	7821      	ldrb	r1, [r4, #0]
 80014c4:	eb03 0383 	add.w	r3, r3, r3, lsl #2
 80014c8:	eb02 0343 	add.w	r3, r2, r3, lsl #1
 80014cc:	f1a1 0230 	sub.w	r2, r1, #48	@ 0x30
 80014d0:	2a09      	cmp	r2, #9
 80014d2:	d9f5      	bls.n	80014c0 <_svfiprintf_r+0x160>
 80014d4:	292e      	cmp	r1, #46	@ 0x2e
 80014d6:	9307      	str	r3, [sp, #28]
 80014d8:	46a3      	mov	fp, r4
 80014da:	d1a3      	bne.n	8001424 <_svfiprintf_r+0xc4>
 80014dc:	f89b 1001 	ldrb.w	r1, [fp, #1]
 80014e0:	292a      	cmp	r1, #42	@ 0x2a
 80014e2:	d127      	bne.n	8001534 <_svfiprintf_r+0x1d4>
 80014e4:	9b03      	ldr	r3, [sp, #12]
 80014e6:	f89b 1002 	ldrb.w	r1, [fp, #2]
 80014ea:	681a      	ldr	r2, [r3, #0]
 80014ec:	9205      	str	r2, [sp, #20]
 80014ee:	3304      	adds	r3, #4
 80014f0:	2a00      	cmp	r2, #0
 80014f2:	f10b 0002 	add.w	r0, fp, #2
 80014f6:	9303      	str	r3, [sp, #12]
 80014f8:	bfb8      	it	lt
 80014fa:	f04f 33ff 	movlt.w	r3, #4294967295	@ 0xffffffff
 80014fe:	4683      	mov	fp, r0
 8001500:	bfb8      	it	lt
 8001502:	9305      	strlt	r3, [sp, #20]
 8001504:	e78e      	b.n	8001424 <_svfiprintf_r+0xc4>
 8001506:	9b03      	ldr	r3, [sp, #12]
 8001508:	3307      	adds	r3, #7
 800150a:	f023 0307 	bic.w	r3, r3, #7
 800150e:	3308      	adds	r3, #8
 8001510:	9303      	str	r3, [sp, #12]
 8001512:	e7ad      	b.n	8001470 <_svfiprintf_r+0x110>
 8001514:	4249      	negs	r1, r1
 8001516:	f043 0302 	orr.w	r3, r3, #2
 800151a:	9107      	str	r1, [sp, #28]
 800151c:	9304      	str	r3, [sp, #16]
 800151e:	e77d      	b.n	800141c <_svfiprintf_r+0xbc>
 8001520:	aa03      	add	r2, sp, #12
 8001522:	9200      	str	r2, [sp, #0]
 8001524:	4b1b      	ldr	r3, [pc, #108]	@ (8001594 <_svfiprintf_r+0x234>)
 8001526:	4642      	mov	r2, r8
 8001528:	a904      	add	r1, sp, #16
 800152a:	4648      	mov	r0, r9
 800152c:	f000 fc0c 	bl	8001d48 <_printf_i>
 8001530:	4607      	mov	r7, r0
 8001532:	e79b      	b.n	800146c <_svfiprintf_r+0x10c>
 8001534:	f1a1 0230 	sub.w	r2, r1, #48	@ 0x30
 8001538:	2300      	movs	r3, #0
 800153a:	2a09      	cmp	r2, #9
 800153c:	9305      	str	r3, [sp, #20]
 800153e:	f10b 0b01 	add.w	fp, fp, #1
 8001542:	f63f af6f 	bhi.w	8001424 <_svfiprintf_r+0xc4>
 8001546:	f81b 1f01 	ldrb.w	r1, [fp, #1]!
 800154a:	eb03 0383 	add.w	r3, r3, r3, lsl #2
 800154e:	eb02 0343 	add.w	r3, r2, r3, lsl #1
 8001552:	f1a1 0230 	sub.w	r2, r1, #48	@ 0x30
 8001556:	2a09      	cmp	r2, #9
 8001558:	d9f5      	bls.n	8001546 <_svfiprintf_r+0x1e6>
 800155a:	9305      	str	r3, [sp, #20]
 800155c:	e762      	b.n	8001424 <_svfiprintf_r+0xc4>
 800155e:	2140      	movs	r1, #64	@ 0x40
 8001560:	f7ff f934 	bl	80007cc <_malloc_r>
 8001564:	f8c8 0000 	str.w	r0, [r8]
 8001568:	f8c8 0010 	str.w	r0, [r8, #16]
 800156c:	b118      	cbz	r0, 8001576 <_svfiprintf_r+0x216>
 800156e:	2340      	movs	r3, #64	@ 0x40
 8001570:	f8c8 3014 	str.w	r3, [r8, #20]
 8001574:	e702      	b.n	800137c <_svfiprintf_r+0x1c>
 8001576:	230c      	movs	r3, #12
 8001578:	f8c9 3000 	str.w	r3, [r9]
 800157c:	f04f 30ff 	mov.w	r0, #4294967295	@ 0xffffffff
 8001580:	e782      	b.n	8001488 <_svfiprintf_r+0x128>
 8001582:	bf00      	nop
 8001584:	08002660 	.word	0x08002660
 8001588:	08002668 	.word	0x08002668
 800158c:	0800266c 	.word	0x0800266c
 8001590:	00000000 	.word	0x00000000
 8001594:	08001199 	.word	0x08001199

08001598 <__sfvwrite_r>:
 8001598:	6893      	ldr	r3, [r2, #8]
 800159a:	2b00      	cmp	r3, #0
 800159c:	f000 80f8 	beq.w	8001790 <__sfvwrite_r+0x1f8>
 80015a0:	e92d 4ff0 	stmdb	sp!, {r4, r5, r6, r7, r8, r9, sl, fp, lr}
 80015a4:	f9b1 c00c 	ldrsh.w	ip, [r1, #12]
 80015a8:	f01c 0f08 	tst.w	ip, #8
 80015ac:	b083      	sub	sp, #12
 80015ae:	4690      	mov	r8, r2
 80015b0:	4681      	mov	r9, r0
 80015b2:	460c      	mov	r4, r1
 80015b4:	d031      	beq.n	800161a <__sfvwrite_r+0x82>
 80015b6:	690b      	ldr	r3, [r1, #16]
 80015b8:	b37b      	cbz	r3, 800161a <__sfvwrite_r+0x82>
 80015ba:	f01c 0702 	ands.w	r7, ip, #2
 80015be:	f8d8 6000 	ldr.w	r6, [r8]
 80015c2:	d038      	beq.n	8001636 <__sfvwrite_r+0x9e>
 80015c4:	2700      	movs	r7, #0
 80015c6:	f8d4 b028 	ldr.w	fp, [r4, #40]	@ 0x28
 80015ca:	6a21      	ldr	r1, [r4, #32]
 80015cc:	f8df a2c4 	ldr.w	sl, [pc, #708]	@ 8001894 <__sfvwrite_r+0x2fc>
 80015d0:	463d      	mov	r5, r7
 80015d2:	4555      	cmp	r5, sl
 80015d4:	462b      	mov	r3, r5
 80015d6:	463a      	mov	r2, r7
 80015d8:	bf28      	it	cs
 80015da:	4653      	movcs	r3, sl
 80015dc:	4648      	mov	r0, r9
 80015de:	b1c5      	cbz	r5, 8001612 <__sfvwrite_r+0x7a>
 80015e0:	47d8      	blx	fp
 80015e2:	2800      	cmp	r0, #0
 80015e4:	f340 80ca 	ble.w	800177c <__sfvwrite_r+0x1e4>
 80015e8:	f8d8 3008 	ldr.w	r3, [r8, #8]
 80015ec:	1a1b      	subs	r3, r3, r0
 80015ee:	4407      	add	r7, r0
 80015f0:	1a2d      	subs	r5, r5, r0
 80015f2:	f8c8 3008 	str.w	r3, [r8, #8]
 80015f6:	2b00      	cmp	r3, #0
 80015f8:	f000 80b6 	beq.w	8001768 <__sfvwrite_r+0x1d0>
 80015fc:	4555      	cmp	r5, sl
 80015fe:	462b      	mov	r3, r5
 8001600:	f8d4 b028 	ldr.w	fp, [r4, #40]	@ 0x28
 8001604:	6a21      	ldr	r1, [r4, #32]
 8001606:	bf28      	it	cs
 8001608:	4653      	movcs	r3, sl
 800160a:	463a      	mov	r2, r7
 800160c:	4648      	mov	r0, r9
 800160e:	2d00      	cmp	r5, #0
 8001610:	d1e6      	bne.n	80015e0 <__sfvwrite_r+0x48>
 8001612:	e9d6 7500 	ldrd	r7, r5, [r6]
 8001616:	3608      	adds	r6, #8
 8001618:	e7db      	b.n	80015d2 <__sfvwrite_r+0x3a>
 800161a:	4621      	mov	r1, r4
 800161c:	4648      	mov	r0, r9
 800161e:	f7ff f9d5 	bl	80009cc <__swsetup_r>
 8001622:	2800      	cmp	r0, #0
 8001624:	f040 80af 	bne.w	8001786 <__sfvwrite_r+0x1ee>
 8001628:	f9b4 c00c 	ldrsh.w	ip, [r4, #12]
 800162c:	f8d8 6000 	ldr.w	r6, [r8]
 8001630:	f01c 0702 	ands.w	r7, ip, #2
 8001634:	d1c6      	bne.n	80015c4 <__sfvwrite_r+0x2c>
 8001636:	f01c 0a01 	ands.w	sl, ip, #1
 800163a:	d163      	bne.n	8001704 <__sfvwrite_r+0x16c>
 800163c:	6823      	ldr	r3, [r4, #0]
 800163e:	68a1      	ldr	r1, [r4, #8]
 8001640:	4657      	mov	r7, sl
 8001642:	4618      	mov	r0, r3
 8001644:	468b      	mov	fp, r1
 8001646:	2f00      	cmp	r7, #0
 8001648:	d058      	beq.n	80016fc <__sfvwrite_r+0x164>
 800164a:	f41c 7f00 	tst.w	ip, #512	@ 0x200
 800164e:	f000 80b5 	beq.w	80017bc <__sfvwrite_r+0x224>
 8001652:	42b9      	cmp	r1, r7
 8001654:	460a      	mov	r2, r1
 8001656:	f200 80e1 	bhi.w	800181c <__sfvwrite_r+0x284>
 800165a:	f41c 6f90 	tst.w	ip, #1152	@ 0x480
 800165e:	d02f      	beq.n	80016c0 <__sfvwrite_r+0x128>
 8001660:	6921      	ldr	r1, [r4, #16]
 8001662:	6962      	ldr	r2, [r4, #20]
 8001664:	1a5d      	subs	r5, r3, r1
 8001666:	eb02 0242 	add.w	r2, r2, r2, lsl #1
 800166a:	eb02 72d2 	add.w	r2, r2, r2, lsr #31
 800166e:	1c6b      	adds	r3, r5, #1
 8001670:	1052      	asrs	r2, r2, #1
 8001672:	443b      	add	r3, r7
 8001674:	4293      	cmp	r3, r2
 8001676:	bf92      	itee	ls
 8001678:	4693      	movls	fp, r2
 800167a:	469b      	movhi	fp, r3
 800167c:	461a      	movhi	r2, r3
 800167e:	f41c 6f80 	tst.w	ip, #1024	@ 0x400
 8001682:	f000 80ea 	beq.w	800185a <__sfvwrite_r+0x2c2>
 8001686:	4611      	mov	r1, r2
 8001688:	4648      	mov	r0, r9
 800168a:	f7ff f89f 	bl	80007cc <_malloc_r>
 800168e:	2800      	cmp	r0, #0
 8001690:	f000 80f9 	beq.w	8001886 <__sfvwrite_r+0x2ee>
 8001694:	462a      	mov	r2, r5
 8001696:	6921      	ldr	r1, [r4, #16]
 8001698:	9000      	str	r0, [sp, #0]
 800169a:	f000 f9e1 	bl	8001a60 <memcpy>
 800169e:	89a2      	ldrh	r2, [r4, #12]
 80016a0:	9b00      	ldr	r3, [sp, #0]
 80016a2:	f422 6290 	bic.w	r2, r2, #1152	@ 0x480
 80016a6:	f042 0280 	orr.w	r2, r2, #128	@ 0x80
 80016aa:	81a2      	strh	r2, [r4, #12]
 80016ac:	1958      	adds	r0, r3, r5
 80016ae:	ebab 0505 	sub.w	r5, fp, r5
 80016b2:	f8c4 b014 	str.w	fp, [r4, #20]
 80016b6:	6123      	str	r3, [r4, #16]
 80016b8:	60a5      	str	r5, [r4, #8]
 80016ba:	6020      	str	r0, [r4, #0]
 80016bc:	46bb      	mov	fp, r7
 80016be:	463a      	mov	r2, r7
 80016c0:	4651      	mov	r1, sl
 80016c2:	9200      	str	r2, [sp, #0]
 80016c4:	f000 f8fa 	bl	80018bc <memmove>
 80016c8:	68a1      	ldr	r1, [r4, #8]
 80016ca:	6823      	ldr	r3, [r4, #0]
 80016cc:	9a00      	ldr	r2, [sp, #0]
 80016ce:	eba1 010b 	sub.w	r1, r1, fp
 80016d2:	441a      	add	r2, r3
 80016d4:	463d      	mov	r5, r7
 80016d6:	60a1      	str	r1, [r4, #8]
 80016d8:	6022      	str	r2, [r4, #0]
 80016da:	2700      	movs	r7, #0
 80016dc:	f8d8 3008 	ldr.w	r3, [r8, #8]
 80016e0:	1b5b      	subs	r3, r3, r5
 80016e2:	44aa      	add	sl, r5
 80016e4:	f8c8 3008 	str.w	r3, [r8, #8]
 80016e8:	2b00      	cmp	r3, #0
 80016ea:	d03d      	beq.n	8001768 <__sfvwrite_r+0x1d0>
 80016ec:	6823      	ldr	r3, [r4, #0]
 80016ee:	68a1      	ldr	r1, [r4, #8]
 80016f0:	f9b4 c00c 	ldrsh.w	ip, [r4, #12]
 80016f4:	4618      	mov	r0, r3
 80016f6:	468b      	mov	fp, r1
 80016f8:	2f00      	cmp	r7, #0
 80016fa:	d1a6      	bne.n	800164a <__sfvwrite_r+0xb2>
 80016fc:	e9d6 a700 	ldrd	sl, r7, [r6]
 8001700:	3608      	adds	r6, #8
 8001702:	e79e      	b.n	8001642 <__sfvwrite_r+0xaa>
 8001704:	4638      	mov	r0, r7
 8001706:	46bb      	mov	fp, r7
 8001708:	463d      	mov	r5, r7
 800170a:	9700      	str	r7, [sp, #0]
 800170c:	2d00      	cmp	r5, #0
 800170e:	d041      	beq.n	8001794 <__sfvwrite_r+0x1fc>
 8001710:	2800      	cmp	r0, #0
 8001712:	d046      	beq.n	80017a2 <__sfvwrite_r+0x20a>
 8001714:	9a00      	ldr	r2, [sp, #0]
 8001716:	6820      	ldr	r0, [r4, #0]
 8001718:	68a1      	ldr	r1, [r4, #8]
 800171a:	e9d4 7304 	ldrd	r7, r3, [r4, #16]
 800171e:	42aa      	cmp	r2, r5
 8001720:	bf28      	it	cs
 8001722:	462a      	movcs	r2, r5
 8001724:	42b8      	cmp	r0, r7
 8001726:	d904      	bls.n	8001732 <__sfvwrite_r+0x19a>
 8001728:	eb01 0a03 	add.w	sl, r1, r3
 800172c:	4552      	cmp	r2, sl
 800172e:	f300 8085 	bgt.w	800183c <__sfvwrite_r+0x2a4>
 8001732:	4293      	cmp	r3, r2
 8001734:	dc75      	bgt.n	8001822 <__sfvwrite_r+0x28a>
 8001736:	6a21      	ldr	r1, [r4, #32]
 8001738:	6aa7      	ldr	r7, [r4, #40]	@ 0x28
 800173a:	465a      	mov	r2, fp
 800173c:	4648      	mov	r0, r9
 800173e:	47b8      	blx	r7
 8001740:	f1b0 0a00 	subs.w	sl, r0, #0
 8001744:	dd1a      	ble.n	800177c <__sfvwrite_r+0x1e4>
 8001746:	9b00      	ldr	r3, [sp, #0]
 8001748:	ebb3 030a 	subs.w	r3, r3, sl
 800174c:	9300      	str	r3, [sp, #0]
 800174e:	d00f      	beq.n	8001770 <__sfvwrite_r+0x1d8>
 8001750:	2001      	movs	r0, #1
 8001752:	f8d8 3008 	ldr.w	r3, [r8, #8]
 8001756:	eba3 030a 	sub.w	r3, r3, sl
 800175a:	44d3      	add	fp, sl
 800175c:	eba5 050a 	sub.w	r5, r5, sl
 8001760:	f8c8 3008 	str.w	r3, [r8, #8]
 8001764:	2b00      	cmp	r3, #0
 8001766:	d1d1      	bne.n	800170c <__sfvwrite_r+0x174>
 8001768:	2000      	movs	r0, #0
 800176a:	b003      	add	sp, #12
 800176c:	e8bd 8ff0 	ldmia.w	sp!, {r4, r5, r6, r7, r8, r9, sl, fp, pc}
 8001770:	4621      	mov	r1, r4
 8001772:	4648      	mov	r0, r9
 8001774:	f7fe ffbe 	bl	80006f4 <_fflush_r>
 8001778:	2800      	cmp	r0, #0
 800177a:	d0ea      	beq.n	8001752 <__sfvwrite_r+0x1ba>
 800177c:	f9b4 300c 	ldrsh.w	r3, [r4, #12]
 8001780:	f043 0340 	orr.w	r3, r3, #64	@ 0x40
 8001784:	81a3      	strh	r3, [r4, #12]
 8001786:	f04f 30ff 	mov.w	r0, #4294967295	@ 0xffffffff
 800178a:	b003      	add	sp, #12
 800178c:	e8bd 8ff0 	ldmia.w	sp!, {r4, r5, r6, r7, r8, r9, sl, fp, pc}
 8001790:	2000      	movs	r0, #0
 8001792:	4770      	bx	lr
 8001794:	6875      	ldr	r5, [r6, #4]
 8001796:	4633      	mov	r3, r6
 8001798:	3608      	adds	r6, #8
 800179a:	2d00      	cmp	r5, #0
 800179c:	d0fa      	beq.n	8001794 <__sfvwrite_r+0x1fc>
 800179e:	f8d3 b000 	ldr.w	fp, [r3]
 80017a2:	462a      	mov	r2, r5
 80017a4:	210a      	movs	r1, #10
 80017a6:	4658      	mov	r0, fp
 80017a8:	f000 f90a 	bl	80019c0 <memchr>
 80017ac:	2800      	cmp	r0, #0
 80017ae:	d067      	beq.n	8001880 <__sfvwrite_r+0x2e8>
 80017b0:	3001      	adds	r0, #1
 80017b2:	eba0 030b 	sub.w	r3, r0, fp
 80017b6:	9300      	str	r3, [sp, #0]
 80017b8:	461a      	mov	r2, r3
 80017ba:	e7ac      	b.n	8001716 <__sfvwrite_r+0x17e>
 80017bc:	6922      	ldr	r2, [r4, #16]
 80017be:	429a      	cmp	r2, r3
 80017c0:	d314      	bcc.n	80017ec <__sfvwrite_r+0x254>
 80017c2:	6962      	ldr	r2, [r4, #20]
 80017c4:	42ba      	cmp	r2, r7
 80017c6:	d811      	bhi.n	80017ec <__sfvwrite_r+0x254>
 80017c8:	f06f 4300 	mvn.w	r3, #2147483648	@ 0x80000000
 80017cc:	42bb      	cmp	r3, r7
 80017ce:	bf28      	it	cs
 80017d0:	463b      	movcs	r3, r7
 80017d2:	6aa5      	ldr	r5, [r4, #40]	@ 0x28
 80017d4:	fb93 f3f2 	sdiv	r3, r3, r2
 80017d8:	6a21      	ldr	r1, [r4, #32]
 80017da:	fb02 f303 	mul.w	r3, r2, r3
 80017de:	4648      	mov	r0, r9
 80017e0:	4652      	mov	r2, sl
 80017e2:	47a8      	blx	r5
 80017e4:	1e05      	subs	r5, r0, #0
 80017e6:	ddc9      	ble.n	800177c <__sfvwrite_r+0x1e4>
 80017e8:	1b7f      	subs	r7, r7, r5
 80017ea:	e777      	b.n	80016dc <__sfvwrite_r+0x144>
 80017ec:	42b9      	cmp	r1, r7
 80017ee:	bf28      	it	cs
 80017f0:	4639      	movcs	r1, r7
 80017f2:	460d      	mov	r5, r1
 80017f4:	4618      	mov	r0, r3
 80017f6:	460a      	mov	r2, r1
 80017f8:	4651      	mov	r1, sl
 80017fa:	f000 f85f 	bl	80018bc <memmove>
 80017fe:	68a1      	ldr	r1, [r4, #8]
 8001800:	6823      	ldr	r3, [r4, #0]
 8001802:	1b49      	subs	r1, r1, r5
 8001804:	442b      	add	r3, r5
 8001806:	60a1      	str	r1, [r4, #8]
 8001808:	6023      	str	r3, [r4, #0]
 800180a:	2900      	cmp	r1, #0
 800180c:	d1ec      	bne.n	80017e8 <__sfvwrite_r+0x250>
 800180e:	4621      	mov	r1, r4
 8001810:	4648      	mov	r0, r9
 8001812:	f7fe ff6f 	bl	80006f4 <_fflush_r>
 8001816:	2800      	cmp	r0, #0
 8001818:	d0e6      	beq.n	80017e8 <__sfvwrite_r+0x250>
 800181a:	e7af      	b.n	800177c <__sfvwrite_r+0x1e4>
 800181c:	46bb      	mov	fp, r7
 800181e:	463a      	mov	r2, r7
 8001820:	e74e      	b.n	80016c0 <__sfvwrite_r+0x128>
 8001822:	4659      	mov	r1, fp
 8001824:	9201      	str	r2, [sp, #4]
 8001826:	f000 f849 	bl	80018bc <memmove>
 800182a:	9a01      	ldr	r2, [sp, #4]
 800182c:	68a3      	ldr	r3, [r4, #8]
 800182e:	1a9b      	subs	r3, r3, r2
 8001830:	60a3      	str	r3, [r4, #8]
 8001832:	6823      	ldr	r3, [r4, #0]
 8001834:	4413      	add	r3, r2
 8001836:	6023      	str	r3, [r4, #0]
 8001838:	4692      	mov	sl, r2
 800183a:	e784      	b.n	8001746 <__sfvwrite_r+0x1ae>
 800183c:	4659      	mov	r1, fp
 800183e:	4652      	mov	r2, sl
 8001840:	f000 f83c 	bl	80018bc <memmove>
 8001844:	6823      	ldr	r3, [r4, #0]
 8001846:	4453      	add	r3, sl
 8001848:	6023      	str	r3, [r4, #0]
 800184a:	4621      	mov	r1, r4
 800184c:	4648      	mov	r0, r9
 800184e:	f7fe ff51 	bl	80006f4 <_fflush_r>
 8001852:	2800      	cmp	r0, #0
 8001854:	f43f af77 	beq.w	8001746 <__sfvwrite_r+0x1ae>
 8001858:	e790      	b.n	800177c <__sfvwrite_r+0x1e4>
 800185a:	4648      	mov	r0, r9
 800185c:	f000 f9b0 	bl	8001bc0 <_realloc_r>
 8001860:	4603      	mov	r3, r0
 8001862:	2800      	cmp	r0, #0
 8001864:	f47f af22 	bne.w	80016ac <__sfvwrite_r+0x114>
 8001868:	6921      	ldr	r1, [r4, #16]
 800186a:	4648      	mov	r0, r9
 800186c:	f7ff f82e 	bl	80008cc <_free_r>
 8001870:	f9b4 300c 	ldrsh.w	r3, [r4, #12]
 8001874:	220c      	movs	r2, #12
 8001876:	f8c9 2000 	str.w	r2, [r9]
 800187a:	f023 0380 	bic.w	r3, r3, #128	@ 0x80
 800187e:	e77f      	b.n	8001780 <__sfvwrite_r+0x1e8>
 8001880:	1c6a      	adds	r2, r5, #1
 8001882:	9200      	str	r2, [sp, #0]
 8001884:	e747      	b.n	8001716 <__sfvwrite_r+0x17e>
 8001886:	220c      	movs	r2, #12
 8001888:	f9b4 300c 	ldrsh.w	r3, [r4, #12]
 800188c:	f8c9 2000 	str.w	r2, [r9]
 8001890:	e776      	b.n	8001780 <__sfvwrite_r+0x1e8>
 8001892:	bf00      	nop
 8001894:	7ffffc00 	.word	0x7ffffc00

08001898 <_close_r>:
 8001898:	b538      	push	{r3, r4, r5, lr}
 800189a:	4d07      	ldr	r5, [pc, #28]	@ (80018b8 <_close_r+0x20>)
 800189c:	2200      	movs	r2, #0
 800189e:	4604      	mov	r4, r0
 80018a0:	4608      	mov	r0, r1
 80018a2:	602a      	str	r2, [r5, #0]
 80018a4:	f000 fde7 	bl	8002476 <_close>
 80018a8:	1c43      	adds	r3, r0, #1
 80018aa:	d000      	beq.n	80018ae <_close_r+0x16>
 80018ac:	bd38      	pop	{r3, r4, r5, pc}
 80018ae:	682b      	ldr	r3, [r5, #0]
 80018b0:	2b00      	cmp	r3, #0
 80018b2:	d0fb      	beq.n	80018ac <_close_r+0x14>
 80018b4:	6023      	str	r3, [r4, #0]
 80018b6:	bd38      	pop	{r3, r4, r5, pc}
 80018b8:	200001cc 	.word	0x200001cc

080018bc <memmove>:
 80018bc:	4288      	cmp	r0, r1
 80018be:	d90e      	bls.n	80018de <memmove+0x22>
 80018c0:	188b      	adds	r3, r1, r2
 80018c2:	4283      	cmp	r3, r0
 80018c4:	d90b      	bls.n	80018de <memmove+0x22>
 80018c6:	eb00 0c02 	add.w	ip, r0, r2
 80018ca:	2a00      	cmp	r2, #0
 80018cc:	d06e      	beq.n	80019ac <memmove+0xf0>
 80018ce:	4662      	mov	r2, ip
 80018d0:	f813 cd01 	ldrb.w	ip, [r3, #-1]!
 80018d4:	f802 cd01 	strb.w	ip, [r2, #-1]!
 80018d8:	4299      	cmp	r1, r3
 80018da:	d1f9      	bne.n	80018d0 <memmove+0x14>
 80018dc:	4770      	bx	lr
 80018de:	2a0f      	cmp	r2, #15
 80018e0:	d80f      	bhi.n	8001902 <memmove+0x46>
 80018e2:	4603      	mov	r3, r0
 80018e4:	f102 3cff 	add.w	ip, r2, #4294967295	@ 0xffffffff
 80018e8:	2a00      	cmp	r2, #0
 80018ea:	d05f      	beq.n	80019ac <memmove+0xf0>
 80018ec:	f10c 0c01 	add.w	ip, ip, #1
 80018f0:	3b01      	subs	r3, #1
 80018f2:	448c      	add	ip, r1
 80018f4:	f811 2b01 	ldrb.w	r2, [r1], #1
 80018f8:	f803 2f01 	strb.w	r2, [r3, #1]!
 80018fc:	4561      	cmp	r1, ip
 80018fe:	d1f9      	bne.n	80018f4 <memmove+0x38>
 8001900:	4770      	bx	lr
 8001902:	ea40 0301 	orr.w	r3, r0, r1
 8001906:	079b      	lsls	r3, r3, #30
 8001908:	d151      	bne.n	80019ae <memmove+0xf2>
 800190a:	f1a2 0310 	sub.w	r3, r2, #16
 800190e:	b570      	push	{r4, r5, r6, lr}
 8001910:	f101 0c20 	add.w	ip, r1, #32
 8001914:	f023 050f 	bic.w	r5, r3, #15
 8001918:	f101 0e10 	add.w	lr, r1, #16
 800191c:	f100 0410 	add.w	r4, r0, #16
 8001920:	44ac      	add	ip, r5
 8001922:	091b      	lsrs	r3, r3, #4
 8001924:	f85e 5c10 	ldr.w	r5, [lr, #-16]
 8001928:	f844 5c10 	str.w	r5, [r4, #-16]
 800192c:	f85e 5c0c 	ldr.w	r5, [lr, #-12]
 8001930:	f844 5c0c 	str.w	r5, [r4, #-12]
 8001934:	f85e 5c08 	ldr.w	r5, [lr, #-8]
 8001938:	f844 5c08 	str.w	r5, [r4, #-8]
 800193c:	f85e 5c04 	ldr.w	r5, [lr, #-4]
 8001940:	f844 5c04 	str.w	r5, [r4, #-4]
 8001944:	f10e 0e10 	add.w	lr, lr, #16
 8001948:	45e6      	cmp	lr, ip
 800194a:	f104 0410 	add.w	r4, r4, #16
 800194e:	d1e9      	bne.n	8001924 <memmove+0x68>
 8001950:	3301      	adds	r3, #1
 8001952:	f012 0f0c 	tst.w	r2, #12
 8001956:	eb01 1103 	add.w	r1, r1, r3, lsl #4
 800195a:	f002 040f 	and.w	r4, r2, #15
 800195e:	eb00 1303 	add.w	r3, r0, r3, lsl #4
 8001962:	d028      	beq.n	80019b6 <memmove+0xfa>
 8001964:	3c04      	subs	r4, #4
 8001966:	f024 0603 	bic.w	r6, r4, #3
 800196a:	ea4f 0c94 	mov.w	ip, r4, lsr #2
 800196e:	441e      	add	r6, r3
 8001970:	1f1c      	subs	r4, r3, #4
 8001972:	468e      	mov	lr, r1
 8001974:	f85e 5b04 	ldr.w	r5, [lr], #4
 8001978:	f844 5f04 	str.w	r5, [r4, #4]!
 800197c:	42b4      	cmp	r4, r6
 800197e:	d1f9      	bne.n	8001974 <memmove+0xb8>
 8001980:	f10c 0401 	add.w	r4, ip, #1
 8001984:	f002 0203 	and.w	r2, r2, #3
 8001988:	eb03 0384 	add.w	r3, r3, r4, lsl #2
 800198c:	eb01 0184 	add.w	r1, r1, r4, lsl #2
 8001990:	f102 3cff 	add.w	ip, r2, #4294967295	@ 0xffffffff
 8001994:	b14a      	cbz	r2, 80019aa <memmove+0xee>
 8001996:	f10c 0c01 	add.w	ip, ip, #1
 800199a:	3b01      	subs	r3, #1
 800199c:	448c      	add	ip, r1
 800199e:	f811 2b01 	ldrb.w	r2, [r1], #1
 80019a2:	f803 2f01 	strb.w	r2, [r3, #1]!
 80019a6:	4561      	cmp	r1, ip
 80019a8:	d1f9      	bne.n	800199e <memmove+0xe2>
 80019aa:	bd70      	pop	{r4, r5, r6, pc}
 80019ac:	4770      	bx	lr
 80019ae:	f102 3cff 	add.w	ip, r2, #4294967295	@ 0xffffffff
 80019b2:	4603      	mov	r3, r0
 80019b4:	e79a      	b.n	80018ec <memmove+0x30>
 80019b6:	4622      	mov	r2, r4
 80019b8:	e7ea      	b.n	8001990 <memmove+0xd4>
 80019ba:	bf00      	nop
 80019bc:	0000      	movs	r0, r0
	...

080019c0 <memchr>:
 80019c0:	f001 01ff 	and.w	r1, r1, #255	@ 0xff
 80019c4:	2a10      	cmp	r2, #16
 80019c6:	db2b      	blt.n	8001a20 <memchr+0x60>
 80019c8:	f010 0f07 	tst.w	r0, #7
 80019cc:	d008      	beq.n	80019e0 <memchr+0x20>
 80019ce:	f810 3b01 	ldrb.w	r3, [r0], #1
 80019d2:	3a01      	subs	r2, #1
 80019d4:	428b      	cmp	r3, r1
 80019d6:	d02d      	beq.n	8001a34 <memchr+0x74>
 80019d8:	f010 0f07 	tst.w	r0, #7
 80019dc:	b342      	cbz	r2, 8001a30 <memchr+0x70>
 80019de:	d1f6      	bne.n	80019ce <memchr+0xe>
 80019e0:	b4f0      	push	{r4, r5, r6, r7}
 80019e2:	ea41 2101 	orr.w	r1, r1, r1, lsl #8
 80019e6:	ea41 4101 	orr.w	r1, r1, r1, lsl #16
 80019ea:	f022 0407 	bic.w	r4, r2, #7
 80019ee:	f07f 0700 	mvns.w	r7, #0
 80019f2:	2300      	movs	r3, #0
 80019f4:	e8f0 5602 	ldrd	r5, r6, [r0], #8
 80019f8:	3c08      	subs	r4, #8
 80019fa:	ea85 0501 	eor.w	r5, r5, r1
 80019fe:	ea86 0601 	eor.w	r6, r6, r1
 8001a02:	fa85 f547 	uadd8	r5, r5, r7
 8001a06:	faa3 f587 	sel	r5, r3, r7
 8001a0a:	fa86 f647 	uadd8	r6, r6, r7
 8001a0e:	faa5 f687 	sel	r6, r5, r7
 8001a12:	b98e      	cbnz	r6, 8001a38 <memchr+0x78>
 8001a14:	d1ee      	bne.n	80019f4 <memchr+0x34>
 8001a16:	bcf0      	pop	{r4, r5, r6, r7}
 8001a18:	f001 01ff 	and.w	r1, r1, #255	@ 0xff
 8001a1c:	f002 0207 	and.w	r2, r2, #7
 8001a20:	b132      	cbz	r2, 8001a30 <memchr+0x70>
 8001a22:	f810 3b01 	ldrb.w	r3, [r0], #1
 8001a26:	3a01      	subs	r2, #1
 8001a28:	ea83 0301 	eor.w	r3, r3, r1
 8001a2c:	b113      	cbz	r3, 8001a34 <memchr+0x74>
 8001a2e:	d1f8      	bne.n	8001a22 <memchr+0x62>
 8001a30:	2000      	movs	r0, #0
 8001a32:	4770      	bx	lr
 8001a34:	3801      	subs	r0, #1
 8001a36:	4770      	bx	lr
 8001a38:	2d00      	cmp	r5, #0
 8001a3a:	bf06      	itte	eq
 8001a3c:	4635      	moveq	r5, r6
 8001a3e:	3803      	subeq	r0, #3
 8001a40:	3807      	subne	r0, #7
 8001a42:	f015 0f01 	tst.w	r5, #1
 8001a46:	d107      	bne.n	8001a58 <memchr+0x98>
 8001a48:	3001      	adds	r0, #1
 8001a4a:	f415 7f80 	tst.w	r5, #256	@ 0x100
 8001a4e:	bf02      	ittt	eq
 8001a50:	3001      	addeq	r0, #1
 8001a52:	f415 3fc0 	tsteq.w	r5, #98304	@ 0x18000
 8001a56:	3001      	addeq	r0, #1
 8001a58:	bcf0      	pop	{r4, r5, r6, r7}
 8001a5a:	3801      	subs	r0, #1
 8001a5c:	4770      	bx	lr
 8001a5e:	bf00      	nop

08001a60 <memcpy>:
 8001a60:	4684      	mov	ip, r0
 8001a62:	ea41 0300 	orr.w	r3, r1, r0
 8001a66:	f013 0303 	ands.w	r3, r3, #3
 8001a6a:	d16d      	bne.n	8001b48 <memcpy+0xe8>
 8001a6c:	3a40      	subs	r2, #64	@ 0x40
 8001a6e:	d341      	bcc.n	8001af4 <memcpy+0x94>
 8001a70:	f851 3b04 	ldr.w	r3, [r1], #4
 8001a74:	f840 3b04 	str.w	r3, [r0], #4
 8001a78:	f851 3b04 	ldr.w	r3, [r1], #4
 8001a7c:	f840 3b04 	str.w	r3, [r0], #4
 8001a80:	f851 3b04 	ldr.w	r3, [r1], #4
 8001a84:	f840 3b04 	str.w	r3, [r0], #4
 8001a88:	f851 3b04 	ldr.w	r3, [r1], #4
 8001a8c:	f840 3b04 	str.w	r3, [r0], #4
 8001a90:	f851 3b04 	ldr.w	r3, [r1], #4
 8001a94:	f840 3b04 	str.w	r3, [r0], #4
 8001a98:	f851 3b04 	ldr.w	r3, [r1], #4
 8001a9c:	f840 3b04 	str.w	r3, [r0], #4
 8001aa0:	f851 3b04 	ldr.w	r3, [r1], #4
 8001aa4:	f840 3b04 	str.w	r3, [r0], #4
 8001aa8:	f851 3b04 	ldr.w	r3, [r1], #4
 8001aac:	f840 3b04 	str.w	r3, [r0], #4
 8001ab0:	f851 3b04 	ldr.w	r3, [r1], #4
 8001ab4:	f840 3b04 	str.w	r3, [r0], #4
 8001ab8:	f851 3b04 	ldr.w	r3, [r1], #4
 8001abc:	f840 3b04 	str.w	r3, [r0], #4
 8001ac0:	f851 3b04 	ldr.w	r3, [r1], #4
 8001ac4:	f840 3b04 	str.w	r3, [r0], #4
 8001ac8:	f851 3b04 	ldr.w	r3, [r1], #4
 8001acc:	f840 3b04 	str.w	r3, [r0], #4
 8001ad0:	f851 3b04 	ldr.w	r3, [r1], #4
 8001ad4:	f840 3b04 	str.w	r3, [r0], #4
 8001ad8:	f851 3b04 	ldr.w	r3, [r1], #4
 8001adc:	f840 3b04 	str.w	r3, [r0], #4
 8001ae0:	f851 3b04 	ldr.w	r3, [r1], #4
 8001ae4:	f840 3b04 	str.w	r3, [r0], #4
 8001ae8:	f851 3b04 	ldr.w	r3, [r1], #4
 8001aec:	f840 3b04 	str.w	r3, [r0], #4
 8001af0:	3a40      	subs	r2, #64	@ 0x40
 8001af2:	d2bd      	bcs.n	8001a70 <memcpy+0x10>
 8001af4:	3230      	adds	r2, #48	@ 0x30
 8001af6:	d311      	bcc.n	8001b1c <memcpy+0xbc>
 8001af8:	f851 3b04 	ldr.w	r3, [r1], #4
 8001afc:	f840 3b04 	str.w	r3, [r0], #4
 8001b00:	f851 3b04 	ldr.w	r3, [r1], #4
 8001b04:	f840 3b04 	str.w	r3, [r0], #4
 8001b08:	f851 3b04 	ldr.w	r3, [r1], #4
 8001b0c:	f840 3b04 	str.w	r3, [r0], #4
 8001b10:	f851 3b04 	ldr.w	r3, [r1], #4
 8001b14:	f840 3b04 	str.w	r3, [r0], #4
 8001b18:	3a10      	subs	r2, #16
 8001b1a:	d2ed      	bcs.n	8001af8 <memcpy+0x98>
 8001b1c:	320c      	adds	r2, #12
 8001b1e:	d305      	bcc.n	8001b2c <memcpy+0xcc>
 8001b20:	f851 3b04 	ldr.w	r3, [r1], #4
 8001b24:	f840 3b04 	str.w	r3, [r0], #4
 8001b28:	3a04      	subs	r2, #4
 8001b2a:	d2f9      	bcs.n	8001b20 <memcpy+0xc0>
 8001b2c:	3204      	adds	r2, #4
 8001b2e:	d008      	beq.n	8001b42 <memcpy+0xe2>
 8001b30:	07d2      	lsls	r2, r2, #31
 8001b32:	bf1c      	itt	ne
 8001b34:	f811 3b01 	ldrbne.w	r3, [r1], #1
 8001b38:	f800 3b01 	strbne.w	r3, [r0], #1
 8001b3c:	d301      	bcc.n	8001b42 <memcpy+0xe2>
 8001b3e:	880b      	ldrh	r3, [r1, #0]
 8001b40:	8003      	strh	r3, [r0, #0]
 8001b42:	4660      	mov	r0, ip
 8001b44:	4770      	bx	lr
 8001b46:	bf00      	nop
 8001b48:	2a08      	cmp	r2, #8
 8001b4a:	d313      	bcc.n	8001b74 <memcpy+0x114>
 8001b4c:	078b      	lsls	r3, r1, #30
 8001b4e:	d08d      	beq.n	8001a6c <memcpy+0xc>
 8001b50:	f010 0303 	ands.w	r3, r0, #3
 8001b54:	d08a      	beq.n	8001a6c <memcpy+0xc>
 8001b56:	f1c3 0304 	rsb	r3, r3, #4
 8001b5a:	1ad2      	subs	r2, r2, r3
 8001b5c:	07db      	lsls	r3, r3, #31
 8001b5e:	bf1c      	itt	ne
 8001b60:	f811 3b01 	ldrbne.w	r3, [r1], #1
 8001b64:	f800 3b01 	strbne.w	r3, [r0], #1
 8001b68:	d380      	bcc.n	8001a6c <memcpy+0xc>
 8001b6a:	f831 3b02 	ldrh.w	r3, [r1], #2
 8001b6e:	f820 3b02 	strh.w	r3, [r0], #2
 8001b72:	e77b      	b.n	8001a6c <memcpy+0xc>
 8001b74:	3a04      	subs	r2, #4
 8001b76:	d3d9      	bcc.n	8001b2c <memcpy+0xcc>
 8001b78:	3a01      	subs	r2, #1
 8001b7a:	f811 3b01 	ldrb.w	r3, [r1], #1
 8001b7e:	f800 3b01 	strb.w	r3, [r0], #1
 8001b82:	d2f9      	bcs.n	8001b78 <memcpy+0x118>
 8001b84:	780b      	ldrb	r3, [r1, #0]
 8001b86:	7003      	strb	r3, [r0, #0]
 8001b88:	784b      	ldrb	r3, [r1, #1]
 8001b8a:	7043      	strb	r3, [r0, #1]
 8001b8c:	788b      	ldrb	r3, [r1, #2]
 8001b8e:	7083      	strb	r3, [r0, #2]
 8001b90:	4660      	mov	r0, ip
 8001b92:	4770      	bx	lr

08001b94 <_read_r>:
 8001b94:	b538      	push	{r3, r4, r5, lr}
 8001b96:	460c      	mov	r4, r1
 8001b98:	4d08      	ldr	r5, [pc, #32]	@ (8001bbc <_read_r+0x28>)
 8001b9a:	4684      	mov	ip, r0
 8001b9c:	4611      	mov	r1, r2
 8001b9e:	4620      	mov	r0, r4
 8001ba0:	461a      	mov	r2, r3
 8001ba2:	2300      	movs	r3, #0
 8001ba4:	602b      	str	r3, [r5, #0]
 8001ba6:	4664      	mov	r4, ip
 8001ba8:	f000 fc2c 	bl	8002404 <_read>
 8001bac:	1c43      	adds	r3, r0, #1
 8001bae:	d000      	beq.n	8001bb2 <_read_r+0x1e>
 8001bb0:	bd38      	pop	{r3, r4, r5, pc}
 8001bb2:	682b      	ldr	r3, [r5, #0]
 8001bb4:	2b00      	cmp	r3, #0
 8001bb6:	d0fb      	beq.n	8001bb0 <_read_r+0x1c>
 8001bb8:	6023      	str	r3, [r4, #0]
 8001bba:	bd38      	pop	{r3, r4, r5, pc}
 8001bbc:	200001cc 	.word	0x200001cc

08001bc0 <_realloc_r>:
 8001bc0:	e92d 41f0 	stmdb	sp!, {r4, r5, r6, r7, r8, lr}
 8001bc4:	4614      	mov	r4, r2
 8001bc6:	b341      	cbz	r1, 8001c1a <_realloc_r+0x5a>
 8001bc8:	b30a      	cbz	r2, 8001c0e <_realloc_r+0x4e>
 8001bca:	4606      	mov	r6, r0
 8001bcc:	460d      	mov	r5, r1
 8001bce:	f000 fa3f 	bl	8002050 <_malloc_usable_size_r>
 8001bd2:	4284      	cmp	r4, r0
 8001bd4:	4607      	mov	r7, r0
 8001bd6:	d802      	bhi.n	8001bde <_realloc_r+0x1e>
 8001bd8:	ebb4 0f50 	cmp.w	r4, r0, lsr #1
 8001bdc:	d813      	bhi.n	8001c06 <_realloc_r+0x46>
 8001bde:	4621      	mov	r1, r4
 8001be0:	4630      	mov	r0, r6
 8001be2:	f7fe fdf3 	bl	80007cc <_malloc_r>
 8001be6:	4680      	mov	r8, r0
 8001be8:	b150      	cbz	r0, 8001c00 <_realloc_r+0x40>
 8001bea:	42bc      	cmp	r4, r7
 8001bec:	4622      	mov	r2, r4
 8001bee:	4629      	mov	r1, r5
 8001bf0:	bf28      	it	cs
 8001bf2:	463a      	movcs	r2, r7
 8001bf4:	f7ff ff34 	bl	8001a60 <memcpy>
 8001bf8:	4629      	mov	r1, r5
 8001bfa:	4630      	mov	r0, r6
 8001bfc:	f7fe fe66 	bl	80008cc <_free_r>
 8001c00:	4640      	mov	r0, r8
 8001c02:	e8bd 81f0 	ldmia.w	sp!, {r4, r5, r6, r7, r8, pc}
 8001c06:	46a8      	mov	r8, r5
 8001c08:	4640      	mov	r0, r8
 8001c0a:	e8bd 81f0 	ldmia.w	sp!, {r4, r5, r6, r7, r8, pc}
 8001c0e:	46a0      	mov	r8, r4
 8001c10:	f7fe fe5c 	bl	80008cc <_free_r>
 8001c14:	4640      	mov	r0, r8
 8001c16:	e8bd 81f0 	ldmia.w	sp!, {r4, r5, r6, r7, r8, pc}
 8001c1a:	e8bd 41f0 	ldmia.w	sp!, {r4, r5, r6, r7, r8, lr}
 8001c1e:	4611      	mov	r1, r2
 8001c20:	f7fe bdd4 	b.w	80007cc <_malloc_r>

08001c24 <_printf_common>:
 8001c24:	e92d 4ff8 	stmdb	sp!, {r3, r4, r5, r6, r7, r8, r9, sl, fp, lr}
 8001c28:	4692      	mov	sl, r2
 8001c2a:	461f      	mov	r7, r3
 8001c2c:	690a      	ldr	r2, [r1, #16]
 8001c2e:	688b      	ldr	r3, [r1, #8]
 8001c30:	f8dd 9028 	ldr.w	r9, [sp, #40]	@ 0x28
 8001c34:	429a      	cmp	r2, r3
 8001c36:	bfb8      	it	lt
 8001c38:	461a      	movlt	r2, r3
 8001c3a:	f8ca 2000 	str.w	r2, [sl]
 8001c3e:	f891 3043 	ldrb.w	r3, [r1, #67]	@ 0x43
 8001c42:	460c      	mov	r4, r1
 8001c44:	4606      	mov	r6, r0
 8001c46:	b113      	cbz	r3, 8001c4e <_printf_common+0x2a>
 8001c48:	3201      	adds	r2, #1
 8001c4a:	f8ca 2000 	str.w	r2, [sl]
 8001c4e:	6822      	ldr	r2, [r4, #0]
 8001c50:	0691      	lsls	r1, r2, #26
 8001c52:	d55f      	bpl.n	8001d14 <_printf_common+0xf0>
 8001c54:	f8da 3000 	ldr.w	r3, [sl]
 8001c58:	3302      	adds	r3, #2
 8001c5a:	f8ca 3000 	str.w	r3, [sl]
 8001c5e:	6822      	ldr	r2, [r4, #0]
 8001c60:	f012 0f06 	tst.w	r2, #6
 8001c64:	4611      	mov	r1, r2
 8001c66:	d11d      	bne.n	8001ca4 <_printf_common+0x80>
 8001c68:	68e1      	ldr	r1, [r4, #12]
 8001c6a:	4299      	cmp	r1, r3
 8001c6c:	bfd8      	it	le
 8001c6e:	4611      	movle	r1, r2
 8001c70:	dd18      	ble.n	8001ca4 <_printf_common+0x80>
 8001c72:	f04f 0800 	mov.w	r8, #0
 8001c76:	f104 0b19 	add.w	fp, r4, #25
 8001c7a:	e005      	b.n	8001c88 <_printf_common+0x64>
 8001c7c:	68e5      	ldr	r5, [r4, #12]
 8001c7e:	f8da 3000 	ldr.w	r3, [sl]
 8001c82:	1aed      	subs	r5, r5, r3
 8001c84:	4545      	cmp	r5, r8
 8001c86:	dd0c      	ble.n	8001ca2 <_printf_common+0x7e>
 8001c88:	2301      	movs	r3, #1
 8001c8a:	465a      	mov	r2, fp
 8001c8c:	4639      	mov	r1, r7
 8001c8e:	4630      	mov	r0, r6
 8001c90:	47c8      	blx	r9
 8001c92:	3001      	adds	r0, #1
 8001c94:	f108 0801 	add.w	r8, r8, #1
 8001c98:	d1f0      	bne.n	8001c7c <_printf_common+0x58>
 8001c9a:	f04f 30ff 	mov.w	r0, #4294967295	@ 0xffffffff
 8001c9e:	e8bd 8ff8 	ldmia.w	sp!, {r3, r4, r5, r6, r7, r8, r9, sl, fp, pc}
 8001ca2:	6821      	ldr	r1, [r4, #0]
 8001ca4:	f894 3043 	ldrb.w	r3, [r4, #67]	@ 0x43
 8001ca8:	3b00      	subs	r3, #0
 8001caa:	bf18      	it	ne
 8001cac:	2301      	movne	r3, #1
 8001cae:	068a      	lsls	r2, r1, #26
 8001cb0:	d50a      	bpl.n	8001cc8 <_printf_common+0xa4>
 8001cb2:	18e1      	adds	r1, r4, r3
 8001cb4:	1c5a      	adds	r2, r3, #1
 8001cb6:	2030      	movs	r0, #48	@ 0x30
 8001cb8:	f881 0043 	strb.w	r0, [r1, #67]	@ 0x43
 8001cbc:	4422      	add	r2, r4
 8001cbe:	f894 1045 	ldrb.w	r1, [r4, #69]	@ 0x45
 8001cc2:	f882 1043 	strb.w	r1, [r2, #67]	@ 0x43
 8001cc6:	3302      	adds	r3, #2
 8001cc8:	f104 0243 	add.w	r2, r4, #67	@ 0x43
 8001ccc:	4639      	mov	r1, r7
 8001cce:	4630      	mov	r0, r6
 8001cd0:	47c8      	blx	r9
 8001cd2:	3001      	adds	r0, #1
 8001cd4:	d0e1      	beq.n	8001c9a <_printf_common+0x76>
 8001cd6:	6823      	ldr	r3, [r4, #0]
 8001cd8:	f8da 5000 	ldr.w	r5, [sl]
 8001cdc:	6921      	ldr	r1, [r4, #16]
 8001cde:	f003 0306 	and.w	r3, r3, #6
 8001ce2:	2b04      	cmp	r3, #4
 8001ce4:	e9d4 2002 	ldrd	r2, r0, [r4, #8]
 8001ce8:	d01b      	beq.n	8001d22 <_printf_common+0xfe>
 8001cea:	428a      	cmp	r2, r1
 8001cec:	dd20      	ble.n	8001d30 <_printf_common+0x10c>
 8001cee:	f04f 0800 	mov.w	r8, #0
 8001cf2:	1a52      	subs	r2, r2, r1
 8001cf4:	4490      	add	r8, r2
 8001cf6:	341a      	adds	r4, #26
 8001cf8:	2500      	movs	r5, #0
 8001cfa:	e001      	b.n	8001d00 <_printf_common+0xdc>
 8001cfc:	4545      	cmp	r5, r8
 8001cfe:	da17      	bge.n	8001d30 <_printf_common+0x10c>
 8001d00:	2301      	movs	r3, #1
 8001d02:	4622      	mov	r2, r4
 8001d04:	4639      	mov	r1, r7
 8001d06:	4630      	mov	r0, r6
 8001d08:	47c8      	blx	r9
 8001d0a:	3001      	adds	r0, #1
 8001d0c:	f105 0501 	add.w	r5, r5, #1
 8001d10:	d1f4      	bne.n	8001cfc <_printf_common+0xd8>
 8001d12:	e7c2      	b.n	8001c9a <_printf_common+0x76>
 8001d14:	f012 0f06 	tst.w	r2, #6
 8001d18:	d00d      	beq.n	8001d36 <_printf_common+0x112>
 8001d1a:	3b00      	subs	r3, #0
 8001d1c:	bf18      	it	ne
 8001d1e:	2301      	movne	r3, #1
 8001d20:	e7d2      	b.n	8001cc8 <_printf_common+0xa4>
 8001d22:	1b40      	subs	r0, r0, r5
 8001d24:	428a      	cmp	r2, r1
 8001d26:	ea20 78e0 	bic.w	r8, r0, r0, asr #31
 8001d2a:	dce2      	bgt.n	8001cf2 <_printf_common+0xce>
 8001d2c:	2800      	cmp	r0, #0
 8001d2e:	dce2      	bgt.n	8001cf6 <_printf_common+0xd2>
 8001d30:	2000      	movs	r0, #0
 8001d32:	e8bd 8ff8 	ldmia.w	sp!, {r3, r4, r5, r6, r7, r8, r9, sl, fp, pc}
 8001d36:	68e1      	ldr	r1, [r4, #12]
 8001d38:	f8da 3000 	ldr.w	r3, [sl]
 8001d3c:	4299      	cmp	r1, r3
 8001d3e:	bfd8      	it	le
 8001d40:	4611      	movle	r1, r2
 8001d42:	dc96      	bgt.n	8001c72 <_printf_common+0x4e>
 8001d44:	e7ae      	b.n	8001ca4 <_printf_common+0x80>
 8001d46:	bf00      	nop

08001d48 <_printf_i>:
 8001d48:	e92d 47f0 	stmdb	sp!, {r4, r5, r6, r7, r8, r9, sl, lr}
 8001d4c:	4617      	mov	r7, r2
 8001d4e:	b084      	sub	sp, #16
 8001d50:	7e0a      	ldrb	r2, [r1, #24]
 8001d52:	9d0c      	ldr	r5, [sp, #48]	@ 0x30
 8001d54:	460c      	mov	r4, r1
 8001d56:	4606      	mov	r6, r0
 8001d58:	4698      	mov	r8, r3
 8001d5a:	f101 0c43 	add.w	ip, r1, #67	@ 0x43
 8001d5e:	2a00      	cmp	r2, #0
 8001d60:	d035      	beq.n	8001dce <_printf_i+0x86>
 8001d62:	f1a2 0358 	sub.w	r3, r2, #88	@ 0x58
 8001d66:	b2d9      	uxtb	r1, r3
 8001d68:	2920      	cmp	r1, #32
 8001d6a:	d869      	bhi.n	8001e40 <_printf_i+0xf8>
 8001d6c:	2b20      	cmp	r3, #32
 8001d6e:	d867      	bhi.n	8001e40 <_printf_i+0xf8>
 8001d70:	e8df f013 	tbh	[pc, r3, lsl #1]
 8001d74:	006600e6 	.word	0x006600e6
 8001d78:	00660066 	.word	0x00660066
 8001d7c:	00660066 	.word	0x00660066
 8001d80:	00660066 	.word	0x00660066
 8001d84:	00660066 	.word	0x00660066
 8001d88:	00ac0066 	.word	0x00ac0066
 8001d8c:	00660070 	.word	0x00660070
 8001d90:	00660066 	.word	0x00660066
 8001d94:	00700066 	.word	0x00700066
 8001d98:	00660066 	.word	0x00660066
 8001d9c:	00660066 	.word	0x00660066
 8001da0:	00830021 	.word	0x00830021
 8001da4:	006600c6 	.word	0x006600c6
 8001da8:	00b60066 	.word	0x00b60066
 8001dac:	00830066 	.word	0x00830066
 8001db0:	00660066 	.word	0x00660066
 8001db4:	00ec      	.short	0x00ec
 8001db6:	682b      	ldr	r3, [r5, #0]
 8001db8:	6822      	ldr	r2, [r4, #0]
 8001dba:	6961      	ldr	r1, [r4, #20]
 8001dbc:	1d18      	adds	r0, r3, #4
 8001dbe:	6028      	str	r0, [r5, #0]
 8001dc0:	0610      	lsls	r0, r2, #24
 8001dc2:	681b      	ldr	r3, [r3, #0]
 8001dc4:	d402      	bmi.n	8001dcc <_printf_i+0x84>
 8001dc6:	0652      	lsls	r2, r2, #25
 8001dc8:	f100 80e0 	bmi.w	8001f8c <_printf_i+0x244>
 8001dcc:	6019      	str	r1, [r3, #0]
 8001dce:	2300      	movs	r3, #0
 8001dd0:	46e1      	mov	r9, ip
 8001dd2:	6123      	str	r3, [r4, #16]
 8001dd4:	f8cd 8000 	str.w	r8, [sp]
 8001dd8:	463b      	mov	r3, r7
 8001dda:	aa03      	add	r2, sp, #12
 8001ddc:	4621      	mov	r1, r4
 8001dde:	4630      	mov	r0, r6
 8001de0:	f7ff ff20 	bl	8001c24 <_printf_common>
 8001de4:	3001      	adds	r0, #1
 8001de6:	d020      	beq.n	8001e2a <_printf_i+0xe2>
 8001de8:	6923      	ldr	r3, [r4, #16]
 8001dea:	464a      	mov	r2, r9
 8001dec:	4639      	mov	r1, r7
 8001dee:	4630      	mov	r0, r6
 8001df0:	47c0      	blx	r8
 8001df2:	3001      	adds	r0, #1
 8001df4:	d019      	beq.n	8001e2a <_printf_i+0xe2>
 8001df6:	6823      	ldr	r3, [r4, #0]
 8001df8:	68e0      	ldr	r0, [r4, #12]
 8001dfa:	f8dd 900c 	ldr.w	r9, [sp, #12]
 8001dfe:	079b      	lsls	r3, r3, #30
 8001e00:	d518      	bpl.n	8001e34 <_printf_i+0xec>
 8001e02:	4548      	cmp	r0, r9
 8001e04:	dd16      	ble.n	8001e34 <_printf_i+0xec>
 8001e06:	2500      	movs	r5, #0
 8001e08:	f104 0a19 	add.w	sl, r4, #25
 8001e0c:	e004      	b.n	8001e18 <_printf_i+0xd0>
 8001e0e:	68e0      	ldr	r0, [r4, #12]
 8001e10:	eba0 0309 	sub.w	r3, r0, r9
 8001e14:	42ab      	cmp	r3, r5
 8001e16:	dd0d      	ble.n	8001e34 <_printf_i+0xec>
 8001e18:	2301      	movs	r3, #1
 8001e1a:	4652      	mov	r2, sl
 8001e1c:	4639      	mov	r1, r7
 8001e1e:	4630      	mov	r0, r6
 8001e20:	47c0      	blx	r8
 8001e22:	3001      	adds	r0, #1
 8001e24:	f105 0501 	add.w	r5, r5, #1
 8001e28:	d1f1      	bne.n	8001e0e <_printf_i+0xc6>
 8001e2a:	f04f 30ff 	mov.w	r0, #4294967295	@ 0xffffffff
 8001e2e:	b004      	add	sp, #16
 8001e30:	e8bd 87f0 	ldmia.w	sp!, {r4, r5, r6, r7, r8, r9, sl, pc}
 8001e34:	4548      	cmp	r0, r9
 8001e36:	bfb8      	it	lt
 8001e38:	4648      	movlt	r0, r9
 8001e3a:	b004      	add	sp, #16
 8001e3c:	e8bd 87f0 	ldmia.w	sp!, {r4, r5, r6, r7, r8, r9, sl, pc}
 8001e40:	f884 2042 	strb.w	r2, [r4, #66]	@ 0x42
 8001e44:	2001      	movs	r0, #1
 8001e46:	f104 0942 	add.w	r9, r4, #66	@ 0x42
 8001e4a:	2300      	movs	r3, #0
 8001e4c:	6120      	str	r0, [r4, #16]
 8001e4e:	f884 3043 	strb.w	r3, [r4, #67]	@ 0x43
 8001e52:	e7bf      	b.n	8001dd4 <_printf_i+0x8c>
 8001e54:	682a      	ldr	r2, [r5, #0]
 8001e56:	6823      	ldr	r3, [r4, #0]
 8001e58:	1d11      	adds	r1, r2, #4
 8001e5a:	0618      	lsls	r0, r3, #24
 8001e5c:	6029      	str	r1, [r5, #0]
 8001e5e:	d402      	bmi.n	8001e66 <_printf_i+0x11e>
 8001e60:	0659      	lsls	r1, r3, #25
 8001e62:	f100 8095 	bmi.w	8001f90 <_printf_i+0x248>
 8001e66:	6810      	ldr	r0, [r2, #0]
 8001e68:	4601      	mov	r1, r0
 8001e6a:	2800      	cmp	r0, #0
 8001e6c:	6862      	ldr	r2, [r4, #4]
 8001e6e:	f2c0 8093 	blt.w	8001f98 <_printf_i+0x250>
 8001e72:	4854      	ldr	r0, [pc, #336]	@ (8001fc4 <_printf_i+0x27c>)
 8001e74:	f04f 0e0a 	mov.w	lr, #10
 8001e78:	e015      	b.n	8001ea6 <_printf_i+0x15e>
 8001e7a:	6820      	ldr	r0, [r4, #0]
 8001e7c:	682b      	ldr	r3, [r5, #0]
 8001e7e:	f010 0f80 	tst.w	r0, #128	@ 0x80
 8001e82:	f853 1b04 	ldr.w	r1, [r3], #4
 8001e86:	d102      	bne.n	8001e8e <_printf_i+0x146>
 8001e88:	0640      	lsls	r0, r0, #25
 8001e8a:	bf48      	it	mi
 8001e8c:	b289      	uxthmi	r1, r1
 8001e8e:	2a6f      	cmp	r2, #111	@ 0x6f
 8001e90:	484c      	ldr	r0, [pc, #304]	@ (8001fc4 <_printf_i+0x27c>)
 8001e92:	602b      	str	r3, [r5, #0]
 8001e94:	bf14      	ite	ne
 8001e96:	f04f 0e0a 	movne.w	lr, #10
 8001e9a:	f04f 0e08 	moveq.w	lr, #8
 8001e9e:	2300      	movs	r3, #0
 8001ea0:	6862      	ldr	r2, [r4, #4]
 8001ea2:	f884 3043 	strb.w	r3, [r4, #67]	@ 0x43
 8001ea6:	2a00      	cmp	r2, #0
 8001ea8:	60a2      	str	r2, [r4, #8]
 8001eaa:	db51      	blt.n	8001f50 <_printf_i+0x208>
 8001eac:	6823      	ldr	r3, [r4, #0]
 8001eae:	f023 0304 	bic.w	r3, r3, #4
 8001eb2:	6023      	str	r3, [r4, #0]
 8001eb4:	2900      	cmp	r1, #0
 8001eb6:	d14b      	bne.n	8001f50 <_printf_i+0x208>
 8001eb8:	2a00      	cmp	r2, #0
 8001eba:	d17b      	bne.n	8001fb4 <_printf_i+0x26c>
 8001ebc:	46e1      	mov	r9, ip
 8001ebe:	f1be 0f08 	cmp.w	lr, #8
 8001ec2:	d056      	beq.n	8001f72 <_printf_i+0x22a>
 8001ec4:	ebac 0309 	sub.w	r3, ip, r9
 8001ec8:	6123      	str	r3, [r4, #16]
 8001eca:	e783      	b.n	8001dd4 <_printf_i+0x8c>
 8001ecc:	682b      	ldr	r3, [r5, #0]
 8001ece:	681a      	ldr	r2, [r3, #0]
 8001ed0:	3304      	adds	r3, #4
 8001ed2:	602b      	str	r3, [r5, #0]
 8001ed4:	f104 0942 	add.w	r9, r4, #66	@ 0x42
 8001ed8:	f884 2042 	strb.w	r2, [r4, #66]	@ 0x42
 8001edc:	2001      	movs	r0, #1
 8001ede:	e7b4      	b.n	8001e4a <_printf_i+0x102>
 8001ee0:	682b      	ldr	r3, [r5, #0]
 8001ee2:	6862      	ldr	r2, [r4, #4]
 8001ee4:	1d19      	adds	r1, r3, #4
 8001ee6:	6029      	str	r1, [r5, #0]
 8001ee8:	f8d3 9000 	ldr.w	r9, [r3]
 8001eec:	2100      	movs	r1, #0
 8001eee:	4648      	mov	r0, r9
 8001ef0:	f7ff fd66 	bl	80019c0 <memchr>
 8001ef4:	2800      	cmp	r0, #0
 8001ef6:	d063      	beq.n	8001fc0 <_printf_i+0x278>
 8001ef8:	eba0 0009 	sub.w	r0, r0, r9
 8001efc:	6060      	str	r0, [r4, #4]
 8001efe:	e7a4      	b.n	8001e4a <_printf_i+0x102>
 8001f00:	6823      	ldr	r3, [r4, #0]
 8001f02:	f043 0320 	orr.w	r3, r3, #32
 8001f06:	6023      	str	r3, [r4, #0]
 8001f08:	2278      	movs	r2, #120	@ 0x78
 8001f0a:	482f      	ldr	r0, [pc, #188]	@ (8001fc8 <_printf_i+0x280>)
 8001f0c:	f884 2045 	strb.w	r2, [r4, #69]	@ 0x45
 8001f10:	682a      	ldr	r2, [r5, #0]
 8001f12:	f013 0f80 	tst.w	r3, #128	@ 0x80
 8001f16:	f852 1b04 	ldr.w	r1, [r2], #4
 8001f1a:	d103      	bne.n	8001f24 <_printf_i+0x1dc>
 8001f1c:	f013 0f40 	tst.w	r3, #64	@ 0x40
 8001f20:	bf18      	it	ne
 8001f22:	b289      	uxthne	r1, r1
 8001f24:	602a      	str	r2, [r5, #0]
 8001f26:	07da      	lsls	r2, r3, #31
 8001f28:	bf44      	itt	mi
 8001f2a:	f043 0320 	orrmi.w	r3, r3, #32
 8001f2e:	6023      	strmi	r3, [r4, #0]
 8001f30:	b919      	cbnz	r1, 8001f3a <_printf_i+0x1f2>
 8001f32:	6823      	ldr	r3, [r4, #0]
 8001f34:	f023 0320 	bic.w	r3, r3, #32
 8001f38:	6023      	str	r3, [r4, #0]
 8001f3a:	f04f 0e10 	mov.w	lr, #16
 8001f3e:	e7ae      	b.n	8001e9e <_printf_i+0x156>
 8001f40:	2358      	movs	r3, #88	@ 0x58
 8001f42:	f884 3045 	strb.w	r3, [r4, #69]	@ 0x45
 8001f46:	481f      	ldr	r0, [pc, #124]	@ (8001fc4 <_printf_i+0x27c>)
 8001f48:	6823      	ldr	r3, [r4, #0]
 8001f4a:	e7e1      	b.n	8001f10 <_printf_i+0x1c8>
 8001f4c:	6823      	ldr	r3, [r4, #0]
 8001f4e:	e7db      	b.n	8001f08 <_printf_i+0x1c0>
 8001f50:	4675      	mov	r5, lr
 8001f52:	46e1      	mov	r9, ip
 8001f54:	fbb1 f3f5 	udiv	r3, r1, r5
 8001f58:	fb05 1a13 	mls	sl, r5, r3, r1
 8001f5c:	460a      	mov	r2, r1
 8001f5e:	42aa      	cmp	r2, r5
 8001f60:	f810 100a 	ldrb.w	r1, [r0, sl]
 8001f64:	f809 1d01 	strb.w	r1, [r9, #-1]!
 8001f68:	4619      	mov	r1, r3
 8001f6a:	d2f3      	bcs.n	8001f54 <_printf_i+0x20c>
 8001f6c:	f1be 0f08 	cmp.w	lr, #8
 8001f70:	d1a8      	bne.n	8001ec4 <_printf_i+0x17c>
 8001f72:	6823      	ldr	r3, [r4, #0]
 8001f74:	07dd      	lsls	r5, r3, #31
 8001f76:	d5a5      	bpl.n	8001ec4 <_printf_i+0x17c>
 8001f78:	6862      	ldr	r2, [r4, #4]
 8001f7a:	6923      	ldr	r3, [r4, #16]
 8001f7c:	429a      	cmp	r2, r3
 8001f7e:	dca1      	bgt.n	8001ec4 <_printf_i+0x17c>
 8001f80:	2330      	movs	r3, #48	@ 0x30
 8001f82:	f809 3c01 	strb.w	r3, [r9, #-1]
 8001f86:	f109 39ff 	add.w	r9, r9, #4294967295	@ 0xffffffff
 8001f8a:	e79b      	b.n	8001ec4 <_printf_i+0x17c>
 8001f8c:	8019      	strh	r1, [r3, #0]
 8001f8e:	e71e      	b.n	8001dce <_printf_i+0x86>
 8001f90:	f9b2 1000 	ldrsh.w	r1, [r2]
 8001f94:	4608      	mov	r0, r1
 8001f96:	e768      	b.n	8001e6a <_printf_i+0x122>
 8001f98:	202d      	movs	r0, #45	@ 0x2d
 8001f9a:	2a00      	cmp	r2, #0
 8001f9c:	60a2      	str	r2, [r4, #8]
 8001f9e:	f884 0043 	strb.w	r0, [r4, #67]	@ 0x43
 8001fa2:	db02      	blt.n	8001faa <_printf_i+0x262>
 8001fa4:	f023 0304 	bic.w	r3, r3, #4
 8001fa8:	6023      	str	r3, [r4, #0]
 8001faa:	250a      	movs	r5, #10
 8001fac:	4805      	ldr	r0, [pc, #20]	@ (8001fc4 <_printf_i+0x27c>)
 8001fae:	4249      	negs	r1, r1
 8001fb0:	46ae      	mov	lr, r5
 8001fb2:	e7ce      	b.n	8001f52 <_printf_i+0x20a>
 8001fb4:	7803      	ldrb	r3, [r0, #0]
 8001fb6:	f884 3042 	strb.w	r3, [r4, #66]	@ 0x42
 8001fba:	f104 0942 	add.w	r9, r4, #66	@ 0x42
 8001fbe:	e77e      	b.n	8001ebe <_printf_i+0x176>
 8001fc0:	6860      	ldr	r0, [r4, #4]
 8001fc2:	e742      	b.n	8001e4a <_printf_i+0x102>
 8001fc4:	08002674 	.word	0x08002674
 8001fc8:	08002688 	.word	0x08002688

08001fcc <_fstat_r>:
 8001fcc:	b570      	push	{r4, r5, r6, lr}
 8001fce:	460c      	mov	r4, r1
 8001fd0:	4d08      	ldr	r5, [pc, #32]	@ (8001ff4 <_fstat_r+0x28>)
 8001fd2:	4603      	mov	r3, r0
 8001fd4:	2600      	movs	r6, #0
 8001fd6:	4620      	mov	r0, r4
 8001fd8:	4611      	mov	r1, r2
 8001fda:	461c      	mov	r4, r3
 8001fdc:	602e      	str	r6, [r5, #0]
 8001fde:	f000 fa56 	bl	800248e <_fstat>
 8001fe2:	1c43      	adds	r3, r0, #1
 8001fe4:	d000      	beq.n	8001fe8 <_fstat_r+0x1c>
 8001fe6:	bd70      	pop	{r4, r5, r6, pc}
 8001fe8:	682b      	ldr	r3, [r5, #0]
 8001fea:	2b00      	cmp	r3, #0
 8001fec:	d0fb      	beq.n	8001fe6 <_fstat_r+0x1a>
 8001fee:	6023      	str	r3, [r4, #0]
 8001ff0:	bd70      	pop	{r4, r5, r6, pc}
 8001ff2:	bf00      	nop
 8001ff4:	200001cc 	.word	0x200001cc

08001ff8 <_lseek_r>:
 8001ff8:	b538      	push	{r3, r4, r5, lr}
 8001ffa:	460c      	mov	r4, r1
 8001ffc:	4d08      	ldr	r5, [pc, #32]	@ (8002020 <_lseek_r+0x28>)
 8001ffe:	4684      	mov	ip, r0
 8002000:	4611      	mov	r1, r2
 8002002:	4620      	mov	r0, r4
 8002004:	461a      	mov	r2, r3
 8002006:	2300      	movs	r3, #0
 8002008:	602b      	str	r3, [r5, #0]
 800200a:	4664      	mov	r4, ip
 800200c:	f000 fa5a 	bl	80024c4 <_lseek>
 8002010:	1c43      	adds	r3, r0, #1
 8002012:	d000      	beq.n	8002016 <_lseek_r+0x1e>
 8002014:	bd38      	pop	{r3, r4, r5, pc}
 8002016:	682b      	ldr	r3, [r5, #0]
 8002018:	2b00      	cmp	r3, #0
 800201a:	d0fb      	beq.n	8002014 <_lseek_r+0x1c>
 800201c:	6023      	str	r3, [r4, #0]
 800201e:	bd38      	pop	{r3, r4, r5, pc}
 8002020:	200001cc 	.word	0x200001cc

08002024 <_write_r>:
 8002024:	b538      	push	{r3, r4, r5, lr}
 8002026:	460c      	mov	r4, r1
 8002028:	4d08      	ldr	r5, [pc, #32]	@ (800204c <_write_r+0x28>)
 800202a:	4684      	mov	ip, r0
 800202c:	4611      	mov	r1, r2
 800202e:	4620      	mov	r0, r4
 8002030:	461a      	mov	r2, r3
 8002032:	2300      	movs	r3, #0
 8002034:	602b      	str	r3, [r5, #0]
 8002036:	4664      	mov	r4, ip
 8002038:	f000 fa01 	bl	800243e <_write>
 800203c:	1c43      	adds	r3, r0, #1
 800203e:	d000      	beq.n	8002042 <_write_r+0x1e>
 8002040:	bd38      	pop	{r3, r4, r5, pc}
 8002042:	682b      	ldr	r3, [r5, #0]
 8002044:	2b00      	cmp	r3, #0
 8002046:	d0fb      	beq.n	8002040 <_write_r+0x1c>
 8002048:	6023      	str	r3, [r4, #0]
 800204a:	bd38      	pop	{r3, r4, r5, pc}
 800204c:	200001cc 	.word	0x200001cc

08002050 <_malloc_usable_size_r>:
 8002050:	f851 3c04 	ldr.w	r3, [r1, #-4]
 8002054:	1f18      	subs	r0, r3, #4
 8002056:	2b00      	cmp	r3, #0
 8002058:	bfbc      	itt	lt
 800205a:	580b      	ldrlt	r3, [r1, r0]
 800205c:	18c0      	addlt	r0, r0, r3
 800205e:	4770      	bx	lr

08002060 <ITM_SendChar>:

// Define the ITM_TER (Trace Enable Register) address (usually 0xE0000E00)
#define ITM_TER (*(volatile uint32_t*)0xE0000E00)

// Function to send a character through ITM
void ITM_SendChar(char ch) {
 8002060:	b480      	push	{r7}
 8002062:	b083      	sub	sp, #12
 8002064:	af00      	add	r7, sp, #0
 8002066:	4603      	mov	r3, r0
 8002068:	71fb      	strb	r3, [r7, #7]
	// Check if ITM_TCR.ITMENA is set
	if (ITM_TCR & 1) {
 800206a:	4b0e      	ldr	r3, [pc, #56]	@ (80020a4 <ITM_SendChar+0x44>)
 800206c:	681b      	ldr	r3, [r3, #0]
 800206e:	f003 0301 	and.w	r3, r3, #1
 8002072:	2b00      	cmp	r3, #0
 8002074:	d00f      	beq.n	8002096 <ITM_SendChar+0x36>
		// Check if stimulus port 0 is enabled
		if (ITM_TER & 1) {
 8002076:	4b0c      	ldr	r3, [pc, #48]	@ (80020a8 <ITM_SendChar+0x48>)
 8002078:	681b      	ldr	r3, [r3, #0]
 800207a:	f003 0301 	and.w	r3, r3, #1
 800207e:	2b00      	cmp	r3, #0
 8002080:	d009      	beq.n	8002096 <ITM_SendChar+0x36>
			// Check if the stimulus port 0 is ready
			while (ITM_STIMULUS_PORT0 == 0);
 8002082:	bf00      	nop
 8002084:	f04f 4360 	mov.w	r3, #3758096384	@ 0xe0000000
 8002088:	681b      	ldr	r3, [r3, #0]
 800208a:	2b00      	cmp	r3, #0
 800208c:	d0fa      	beq.n	8002084 <ITM_SendChar+0x24>
			// Write the character to the stimulus port 0
			ITM_STIMULUS_PORT0 = ch;
 800208e:	f04f 4260 	mov.w	r2, #3758096384	@ 0xe0000000
 8002092:	79fb      	ldrb	r3, [r7, #7]
 8002094:	6013      	str	r3, [r2, #0]
		}
	}
}
 8002096:	bf00      	nop
 8002098:	370c      	adds	r7, #12
 800209a:	46bd      	mov	sp, r7
 800209c:	f85d 7b04 	ldr.w	r7, [sp], #4
 80020a0:	4770      	bx	lr
 80020a2:	bf00      	nop
 80020a4:	e0000e80 	.word	0xe0000e80
 80020a8:	e0000e00 	.word	0xe0000e00

080020ac <ITM_SendString>:

// Function to send a string through ITM
void ITM_SendString(const char *str) {
 80020ac:	b580      	push	{r7, lr}
 80020ae:	b082      	sub	sp, #8
 80020b0:	af00      	add	r7, sp, #0
 80020b2:	6078      	str	r0, [r7, #4]
	while (*str) {
 80020b4:	e006      	b.n	80020c4 <ITM_SendString+0x18>
		ITM_SendChar(*str++);
 80020b6:	687b      	ldr	r3, [r7, #4]
 80020b8:	1c5a      	adds	r2, r3, #1
 80020ba:	607a      	str	r2, [r7, #4]
 80020bc:	781b      	ldrb	r3, [r3, #0]
 80020be:	4618      	mov	r0, r3
 80020c0:	f7ff ffce 	bl	8002060 <ITM_SendChar>
	while (*str) {
 80020c4:	687b      	ldr	r3, [r7, #4]
 80020c6:	781b      	ldrb	r3, [r3, #0]
 80020c8:	2b00      	cmp	r3, #0
 80020ca:	d1f4      	bne.n	80020b6 <ITM_SendString+0xa>
	}
}
 80020cc:	bf00      	nop
 80020ce:	bf00      	nop
 80020d0:	3708      	adds	r7, #8
 80020d2:	46bd      	mov	sp, r7
 80020d4:	bd80      	pop	{r7, pc}
	...

080020d8 <main>:
uint32_t task_handlers[MAX_TASKS];

uint8_t current_task = 0;  // task 1 is running


int main(void) {
 80020d8:	b580      	push	{r7, lr}
 80020da:	af00      	add	r7, sp, #0

	enable_processor_faults();
 80020dc:	f000 f888 	bl	80021f0 <enable_processor_faults>


	init_scheduler_stack(SCHEDULER_STACK_START);
 80020e0:	480d      	ldr	r0, [pc, #52]	@ (8002118 <main+0x40>)
 80020e2:	f000 f8ed 	bl	80022c0 <init_scheduler_stack>

	task_handlers[0] = (uint32_t) task1_handler;
 80020e6:	4a0d      	ldr	r2, [pc, #52]	@ (800211c <main+0x44>)
 80020e8:	4b0d      	ldr	r3, [pc, #52]	@ (8002120 <main+0x48>)
 80020ea:	601a      	str	r2, [r3, #0]
	task_handlers[1] = (uint32_t) task2_handler;
 80020ec:	4a0d      	ldr	r2, [pc, #52]	@ (8002124 <main+0x4c>)
 80020ee:	4b0c      	ldr	r3, [pc, #48]	@ (8002120 <main+0x48>)
 80020f0:	605a      	str	r2, [r3, #4]
	task_handlers[2] = (uint32_t) task3_handler;
 80020f2:	4a0d      	ldr	r2, [pc, #52]	@ (8002128 <main+0x50>)
 80020f4:	4b0a      	ldr	r3, [pc, #40]	@ (8002120 <main+0x48>)
 80020f6:	609a      	str	r2, [r3, #8]
	task_handlers[3] = (uint32_t) task4_handler;
 80020f8:	4a0c      	ldr	r2, [pc, #48]	@ (800212c <main+0x54>)
 80020fa:	4b09      	ldr	r3, [pc, #36]	@ (8002120 <main+0x48>)
 80020fc:	60da      	str	r2, [r3, #12]

	init_task_stacks();
 80020fe:	f000 f897 	bl	8002230 <init_task_stacks>

	init_systick_timer(EXCEPTION_FREQUENCY);
 8002102:	f44f 707a 	mov.w	r0, #1000	@ 0x3e8
 8002106:	f000 f8e1 	bl	80022cc <init_systick_timer>

	switch_sp_to_psp(); // we have to switch so that we can run the task in thread mode
 800210a:	f000 f863 	bl	80021d4 <switch_sp_to_psp>

	task1_handler();
 800210e:	f000 f913 	bl	8002338 <task1_handler>

	/* Loop forever */
	for (;;) {
 8002112:	bf00      	nop
 8002114:	e7fd      	b.n	8002112 <main+0x3a>
 8002116:	bf00      	nop
 8002118:	2001fc00 	.word	0x2001fc00
 800211c:	08002339 	.word	0x08002339
 8002120:	200001d0 	.word	0x200001d0
 8002124:	0800235d 	.word	0x0800235d
 8002128:	08002381 	.word	0x08002381
 800212c:	080023a5 	.word	0x080023a5

08002130 <SysTick_Handler>:
	};
}

__attribute__ ((naked)) void SysTick_Handler() {
	__asm volatile ("PUSH {LR}");  // save LR before it gets corrupted by helper functions
 8002130:	b500      	push	{lr}

	// save the context of the current task
	// 1. get the current PSP value
	__asm volatile ("MRS R0, PSP");
 8002132:	f3ef 8009 	mrs	r0, PSP
	 *   address to a lower one. More explanation in the Cortex m generic user guide.
	 *
	 *   the "!" in the instruction is an optional write back suffix. so for example: R0! means that the final address accessed
	 *   is stored in r0.
	 * */
	__asm volatile ("STMDB R0!, {R4-R11}");
 8002136:	e920 0ff0 	stmdb	r0!, {r4, r5, r6, r7, r8, r9, sl, fp}
	// 3.save the new value of PSP after storing the extra content
	__asm volatile ("BL save_psp_value");
 800213a:	f000 f823 	bl	8002184 <save_psp_value>

	// retrieve the context of the next task
	// 1. set the next task to run
	__asm volatile ("BL update_next_task");
 800213e:	f000 f80b 	bl	8002158 <update_next_task>
	// 2. get the PSP value of new task
	__asm volatile ("BL get_psp_value");
 8002142:	f000 f835 	bl	80021b0 <get_psp_value>
	// 3. load registers r4-r11
	/* To load multiple instructions, the instruction is LDMIA: Load Multiple registers, increment after
	 * LDM and LDMIA is synonymous as increment after is the default behavior
	 * */
	__asm volatile ("LDM R0!, {R4-R11}");
 8002146:	e8b0 0ff0 	ldmia.w	r0!, {r4, r5, r6, r7, r8, r9, sl, fp}
	// 4. update PSP and exit
	__asm volatile ("MSR PSP, R0");
 800214a:	f380 8809 	msr	PSP, r0
	// retrieve LR so that we can go back to main
	__asm volatile ("POP {LR}");
 800214e:	f85d eb04 	ldr.w	lr, [sp], #4

	// return to main
	__asm volatile ("BX LR");
 8002152:	4770      	bx	lr

}
 8002154:	bf00      	nop
	...

08002158 <update_next_task>:

void update_next_task() {
 8002158:	b480      	push	{r7}
 800215a:	af00      	add	r7, sp, #0
	current_task++;
 800215c:	4b08      	ldr	r3, [pc, #32]	@ (8002180 <update_next_task+0x28>)
 800215e:	781b      	ldrb	r3, [r3, #0]
 8002160:	3301      	adds	r3, #1
 8002162:	b2da      	uxtb	r2, r3
 8002164:	4b06      	ldr	r3, [pc, #24]	@ (8002180 <update_next_task+0x28>)
 8002166:	701a      	strb	r2, [r3, #0]
	current_task %= MAX_TASKS;
 8002168:	4b05      	ldr	r3, [pc, #20]	@ (8002180 <update_next_task+0x28>)
 800216a:	781b      	ldrb	r3, [r3, #0]
 800216c:	f003 0303 	and.w	r3, r3, #3
 8002170:	b2da      	uxtb	r2, r3
 8002172:	4b03      	ldr	r3, [pc, #12]	@ (8002180 <update_next_task+0x28>)
 8002174:	701a      	strb	r2, [r3, #0]
}
 8002176:	bf00      	nop
 8002178:	46bd      	mov	sp, r7
 800217a:	f85d 7b04 	ldr.w	r7, [sp], #4
 800217e:	4770      	bx	lr
 8002180:	200001e0 	.word	0x200001e0

08002184 <save_psp_value>:

void save_psp_value(uint32_t current_psp_value) {
 8002184:	b480      	push	{r7}
 8002186:	b083      	sub	sp, #12
 8002188:	af00      	add	r7, sp, #0
 800218a:	6078      	str	r0, [r7, #4]
	PSP_of_tasks[current_task] = current_psp_value;
 800218c:	4b06      	ldr	r3, [pc, #24]	@ (80021a8 <save_psp_value+0x24>)
 800218e:	781b      	ldrb	r3, [r3, #0]
 8002190:	4619      	mov	r1, r3
 8002192:	4a06      	ldr	r2, [pc, #24]	@ (80021ac <save_psp_value+0x28>)
 8002194:	687b      	ldr	r3, [r7, #4]
 8002196:	f842 3021 	str.w	r3, [r2, r1, lsl #2]
}
 800219a:	bf00      	nop
 800219c:	370c      	adds	r7, #12
 800219e:	46bd      	mov	sp, r7
 80021a0:	f85d 7b04 	ldr.w	r7, [sp], #4
 80021a4:	4770      	bx	lr
 80021a6:	bf00      	nop
 80021a8:	200001e0 	.word	0x200001e0
 80021ac:	2000005c 	.word	0x2000005c

080021b0 <get_psp_value>:

uint32_t get_psp_value() {
 80021b0:	b480      	push	{r7}
 80021b2:	af00      	add	r7, sp, #0
	return PSP_of_tasks[current_task];
 80021b4:	4b05      	ldr	r3, [pc, #20]	@ (80021cc <get_psp_value+0x1c>)
 80021b6:	781b      	ldrb	r3, [r3, #0]
 80021b8:	461a      	mov	r2, r3
 80021ba:	4b05      	ldr	r3, [pc, #20]	@ (80021d0 <get_psp_value+0x20>)
 80021bc:	f853 3022 	ldr.w	r3, [r3, r2, lsl #2]
}
 80021c0:	4618      	mov	r0, r3
 80021c2:	46bd      	mov	sp, r7
 80021c4:	f85d 7b04 	ldr.w	r7, [sp], #4
 80021c8:	4770      	bx	lr
 80021ca:	bf00      	nop
 80021cc:	200001e0 	.word	0x200001e0
 80021d0:	2000005c 	.word	0x2000005c

080021d4 <switch_sp_to_psp>:

__attribute__ ((naked)) void switch_sp_to_psp() {
	// 1. Initialize PSP to task 1 stack start - as this is the first task we want to run
	__asm volatile ("PUSH {LR}");
 80021d4:	b500      	push	{lr}
	// save LR value for later so that we can return back to main function
	// get the value of PSP of the current task
	__asm volatile ("BL get_psp_value");
 80021d6:	f7ff ffeb 	bl	80021b0 <get_psp_value>
	// the uint32 return value is stored in r0 which we can use
	__asm volatile ("MSR PSP,R0");
 80021da:	f380 8809 	msr	PSP, r0
	// Initialize PSP to point to our current task
	__asm volatile ("POP {LR}");
 80021de:	f85d eb04 	ldr.w	lr, [sp], #4
	// return LR to point to main function

	// 2. change from SP to PSP using the CONTROL register
	__asm volatile ("MOV R0,#0x02");
 80021e2:	f04f 0002 	mov.w	r0, #2
	// setting the 2nd bit in r0
	// this writes r0 to CONTROL register, thereby setting the 2nd bit to one and
	// changing execution from MSP to PSP
	__asm volatile ("MSR CONTROL, R0");
 80021e6:	f380 8814 	msr	CONTROL, r0

	// 3. return to main
	__asm volatile ("BX LR");
 80021ea:	4770      	bx	lr

}
 80021ec:	bf00      	nop
	...

080021f0 <enable_processor_faults>:

void enable_processor_faults() {
 80021f0:	b480      	push	{r7}
 80021f2:	b083      	sub	sp, #12
 80021f4:	af00      	add	r7, sp, #0
	uint32_t *pSHCSR_ADDRESS = (uint32_t*) 0xE000ED24; // System Handler Control and State Register
 80021f6:	4b0d      	ldr	r3, [pc, #52]	@ (800222c <enable_processor_faults+0x3c>)
 80021f8:	607b      	str	r3, [r7, #4]

	*pSHCSR_ADDRESS |= (1 << 16); // UsageFault enable bit
 80021fa:	687b      	ldr	r3, [r7, #4]
 80021fc:	681b      	ldr	r3, [r3, #0]
 80021fe:	f443 3280 	orr.w	r2, r3, #65536	@ 0x10000
 8002202:	687b      	ldr	r3, [r7, #4]
 8002204:	601a      	str	r2, [r3, #0]
	*pSHCSR_ADDRESS |= (1 << 17); // BusFault enable bit,
 8002206:	687b      	ldr	r3, [r7, #4]
 8002208:	681b      	ldr	r3, [r3, #0]
 800220a:	f443 3200 	orr.w	r2, r3, #131072	@ 0x20000
 800220e:	687b      	ldr	r3, [r7, #4]
 8002210:	601a      	str	r2, [r3, #0]
	*pSHCSR_ADDRESS |= (1 << 18); // MemManage enable bit,
 8002212:	687b      	ldr	r3, [r7, #4]
 8002214:	681b      	ldr	r3, [r3, #0]
 8002216:	f443 2280 	orr.w	r2, r3, #262144	@ 0x40000
 800221a:	687b      	ldr	r3, [r7, #4]
 800221c:	601a      	str	r2, [r3, #0]

}
 800221e:	bf00      	nop
 8002220:	370c      	adds	r7, #12
 8002222:	46bd      	mov	sp, r7
 8002224:	f85d 7b04 	ldr.w	r7, [sp], #4
 8002228:	4770      	bx	lr
 800222a:	bf00      	nop
 800222c:	e000ed24 	.word	0xe000ed24

08002230 <init_task_stacks>:

void init_task_stacks() {
 8002230:	b480      	push	{r7}
 8002232:	b085      	sub	sp, #20
 8002234:	af00      	add	r7, sp, #0
	uint32_t *pPSP;

	for (int i = 0; i < MAX_TASKS; i++) {
 8002236:	2300      	movs	r3, #0
 8002238:	60bb      	str	r3, [r7, #8]
 800223a:	e032      	b.n	80022a2 <init_task_stacks+0x72>
		pPSP = (uint32_t*) PSP_of_tasks[i]; // gets the current task's stack start
 800223c:	4a1e      	ldr	r2, [pc, #120]	@ (80022b8 <init_task_stacks+0x88>)
 800223e:	68bb      	ldr	r3, [r7, #8]
 8002240:	f852 3023 	ldr.w	r3, [r2, r3, lsl #2]
 8002244:	60fb      	str	r3, [r7, #12]

		// XPSR
		pPSP--; // full descending stack
 8002246:	68fb      	ldr	r3, [r7, #12]
 8002248:	3b04      	subs	r3, #4
 800224a:	60fb      	str	r3, [r7, #12]
		*pPSP = DUMMY_XPSR;
 800224c:	68fb      	ldr	r3, [r7, #12]
 800224e:	f04f 7280 	mov.w	r2, #16777216	@ 0x1000000
 8002252:	601a      	str	r2, [r3, #0]

		// PC
		pPSP--;
 8002254:	68fb      	ldr	r3, [r7, #12]
 8002256:	3b04      	subs	r3, #4
 8002258:	60fb      	str	r3, [r7, #12]
		// the task handlers have to be maintained at 1 as the least significant bit is the
		// T bit which has to be set to 1 always
		*pPSP = task_handlers[i];
 800225a:	4a18      	ldr	r2, [pc, #96]	@ (80022bc <init_task_stacks+0x8c>)
 800225c:	68bb      	ldr	r3, [r7, #8]
 800225e:	f852 2023 	ldr.w	r2, [r2, r3, lsl #2]
 8002262:	68fb      	ldr	r3, [r7, #12]
 8002264:	601a      	str	r2, [r3, #0]

		// LR
		pPSP--;
 8002266:	68fb      	ldr	r3, [r7, #12]
 8002268:	3b04      	subs	r3, #4
 800226a:	60fb      	str	r3, [r7, #12]
		*pPSP = RETURN_TO_THREAD_MODE;
 800226c:	68fb      	ldr	r3, [r7, #12]
 800226e:	f06f 0202 	mvn.w	r2, #2
 8002272:	601a      	str	r2, [r3, #0]

		// for GPIO registers r0 to r12
		for (int j = 0; j < 13; j++) {
 8002274:	2300      	movs	r3, #0
 8002276:	607b      	str	r3, [r7, #4]
 8002278:	e008      	b.n	800228c <init_task_stacks+0x5c>
			pPSP--;
 800227a:	68fb      	ldr	r3, [r7, #12]
 800227c:	3b04      	subs	r3, #4
 800227e:	60fb      	str	r3, [r7, #12]
			*pPSP = 0;
 8002280:	68fb      	ldr	r3, [r7, #12]
 8002282:	2200      	movs	r2, #0
 8002284:	601a      	str	r2, [r3, #0]
		for (int j = 0; j < 13; j++) {
 8002286:	687b      	ldr	r3, [r7, #4]
 8002288:	3301      	adds	r3, #1
 800228a:	607b      	str	r3, [r7, #4]
 800228c:	687b      	ldr	r3, [r7, #4]
 800228e:	2b0c      	cmp	r3, #12
 8002290:	ddf3      	ble.n	800227a <init_task_stacks+0x4a>
		}

		// NOTE: we need to save the value back to the PSP_of_tasks
		// only then does the processor pop all the states for us
		PSP_of_tasks[i] = (uint32_t) pPSP;
 8002292:	68fa      	ldr	r2, [r7, #12]
 8002294:	4908      	ldr	r1, [pc, #32]	@ (80022b8 <init_task_stacks+0x88>)
 8002296:	68bb      	ldr	r3, [r7, #8]
 8002298:	f841 2023 	str.w	r2, [r1, r3, lsl #2]
	for (int i = 0; i < MAX_TASKS; i++) {
 800229c:	68bb      	ldr	r3, [r7, #8]
 800229e:	3301      	adds	r3, #1
 80022a0:	60bb      	str	r3, [r7, #8]
 80022a2:	68bb      	ldr	r3, [r7, #8]
 80022a4:	2b03      	cmp	r3, #3
 80022a6:	ddc9      	ble.n	800223c <init_task_stacks+0xc>

	}

}
 80022a8:	bf00      	nop
 80022aa:	bf00      	nop
 80022ac:	3714      	adds	r7, #20
 80022ae:	46bd      	mov	sp, r7
 80022b0:	f85d 7b04 	ldr.w	r7, [sp], #4
 80022b4:	4770      	bx	lr
 80022b6:	bf00      	nop
 80022b8:	2000005c 	.word	0x2000005c
 80022bc:	200001d0 	.word	0x200001d0

080022c0 <init_scheduler_stack>:

// naked function as MSP is a special register and it is not accessible through C code
__attribute__((naked)) void init_scheduler_stack(uint32_t top_of_stack) {
 80022c0:	4603      	mov	r3, r0
	__asm volatile("MSR MSP,%0"::"r" (top_of_stack) :);
 80022c2:	f383 8808 	msr	MSP, r3
	// return to the caller
	__asm volatile("BX LR");
 80022c6:	4770      	bx	lr
}
 80022c8:	bf00      	nop
	...

080022cc <init_systick_timer>:

void init_systick_timer(uint32_t freq) {
 80022cc:	b480      	push	{r7}
 80022ce:	b087      	sub	sp, #28
 80022d0:	af00      	add	r7, sp, #0
 80022d2:	6078      	str	r0, [r7, #4]
	 * - the CVRis where the counting down happens, this should not be modified
	 * - when the CVR counts down to zero, the reload value is copied again from the SVR and the count down begins again
	 * -  we should store the reload value of N-1 if we want to have an exception at N clock cycle.
	 * - example: if we need an interrupt in 100 clock cycles then the reload value must be 99
	 * */
	uint32_t *pSystick_Reload_Value_Register = (uint32_t*) 0xE000E014;
 80022d4:	4b15      	ldr	r3, [pc, #84]	@ (800232c <init_systick_timer+0x60>)
 80022d6:	617b      	str	r3, [r7, #20]
	// SYSTICK control and status register (SCSR): 0xE000E010
	uint32_t *pSystick_Control_And_Status_Register = (uint32_t*) 0xE000E010;
 80022d8:	4b15      	ldr	r3, [pc, #84]	@ (8002330 <init_systick_timer+0x64>)
 80022da:	613b      	str	r3, [r7, #16]

	uint32_t count_value = SYSTICK_TIMER_CLOCK / freq - 1;
 80022dc:	4a15      	ldr	r2, [pc, #84]	@ (8002334 <init_systick_timer+0x68>)
 80022de:	687b      	ldr	r3, [r7, #4]
 80022e0:	fbb2 f3f3 	udiv	r3, r2, r3
 80022e4:	3b01      	subs	r3, #1
 80022e6:	60fb      	str	r3, [r7, #12]

	// clear the value in the SVR
	*pSystick_Reload_Value_Register &= ~(0x00FFFFFFFF); // only 0 to 24 bits are valid in this register
 80022e8:	697b      	ldr	r3, [r7, #20]
 80022ea:	2200      	movs	r2, #0
 80022ec:	601a      	str	r2, [r3, #0]

	// load value
	*pSystick_Reload_Value_Register |= count_value;
 80022ee:	697b      	ldr	r3, [r7, #20]
 80022f0:	681a      	ldr	r2, [r3, #0]
 80022f2:	68fb      	ldr	r3, [r7, #12]
 80022f4:	431a      	orrs	r2, r3
 80022f6:	697b      	ldr	r3, [r7, #20]
 80022f8:	601a      	str	r2, [r3, #0]

	// settings for the SCSR
	*pSystick_Control_And_Status_Register |= (1 << 1); // Enables SysTick exception request
 80022fa:	693b      	ldr	r3, [r7, #16]
 80022fc:	681b      	ldr	r3, [r3, #0]
 80022fe:	f043 0202 	orr.w	r2, r3, #2
 8002302:	693b      	ldr	r3, [r7, #16]
 8002304:	601a      	str	r2, [r3, #0]
	*pSystick_Control_And_Status_Register |= (1 << 2); // sets the clock source to processor clock
 8002306:	693b      	ldr	r3, [r7, #16]
 8002308:	681b      	ldr	r3, [r3, #0]
 800230a:	f043 0204 	orr.w	r2, r3, #4
 800230e:	693b      	ldr	r3, [r7, #16]
 8002310:	601a      	str	r2, [r3, #0]

	// enables the SYSTICK
	*pSystick_Control_And_Status_Register |= (1 << 0);
 8002312:	693b      	ldr	r3, [r7, #16]
 8002314:	681b      	ldr	r3, [r3, #0]
 8002316:	f043 0201 	orr.w	r2, r3, #1
 800231a:	693b      	ldr	r3, [r7, #16]
 800231c:	601a      	str	r2, [r3, #0]

}
 800231e:	bf00      	nop
 8002320:	371c      	adds	r7, #28
 8002322:	46bd      	mov	sp, r7
 8002324:	f85d 7b04 	ldr.w	r7, [sp], #4
 8002328:	4770      	bx	lr
 800232a:	bf00      	nop
 800232c:	e000e014 	.word	0xe000e014
 8002330:	e000e010 	.word	0xe000e010
 8002334:	00f42400 	.word	0x00f42400

08002338 <task1_handler>:

void task1_handler() {
 8002338:	b580      	push	{r7, lr}
 800233a:	b08e      	sub	sp, #56	@ 0x38
 800233c:	af00      	add	r7, sp, #0
char buffer[50]; // global buffer for the printer
	while (1) {
		snprintf(buffer, sizeof(buffer), "in task 1 handler\n");
 800233e:	1d3b      	adds	r3, r7, #4
 8002340:	4a05      	ldr	r2, [pc, #20]	@ (8002358 <task1_handler+0x20>)
 8002342:	2132      	movs	r1, #50	@ 0x32
 8002344:	4618      	mov	r0, r3
 8002346:	f7fe fc73 	bl	8000c30 <sniprintf>
		ITM_SendString(buffer);
 800234a:	1d3b      	adds	r3, r7, #4
 800234c:	4618      	mov	r0, r3
 800234e:	f7ff fead 	bl	80020ac <ITM_SendString>
		snprintf(buffer, sizeof(buffer), "in task 1 handler\n");
 8002352:	bf00      	nop
 8002354:	e7f3      	b.n	800233e <task1_handler+0x6>
 8002356:	bf00      	nop
 8002358:	080025b8 	.word	0x080025b8

0800235c <task2_handler>:
	}
}

void task2_handler() {
 800235c:	b580      	push	{r7, lr}
 800235e:	b08e      	sub	sp, #56	@ 0x38
 8002360:	af00      	add	r7, sp, #0
char buffer[50]; // global buffer for the printer
	while (1) {
		snprintf(buffer, sizeof(buffer), "in task 2 handler\n");
 8002362:	1d3b      	adds	r3, r7, #4
 8002364:	4a05      	ldr	r2, [pc, #20]	@ (800237c <task2_handler+0x20>)
 8002366:	2132      	movs	r1, #50	@ 0x32
 8002368:	4618      	mov	r0, r3
 800236a:	f7fe fc61 	bl	8000c30 <sniprintf>
		ITM_SendString(buffer);
 800236e:	1d3b      	adds	r3, r7, #4
 8002370:	4618      	mov	r0, r3
 8002372:	f7ff fe9b 	bl	80020ac <ITM_SendString>
		snprintf(buffer, sizeof(buffer), "in task 2 handler\n");
 8002376:	bf00      	nop
 8002378:	e7f3      	b.n	8002362 <task2_handler+0x6>
 800237a:	bf00      	nop
 800237c:	080025cc 	.word	0x080025cc

08002380 <task3_handler>:
	}
}

void task3_handler() {
 8002380:	b580      	push	{r7, lr}
 8002382:	b08e      	sub	sp, #56	@ 0x38
 8002384:	af00      	add	r7, sp, #0
char buffer[50]; // global buffer for the printer
	while (1) {
		snprintf(buffer, sizeof(buffer), "in task 3 handler\n");
 8002386:	1d3b      	adds	r3, r7, #4
 8002388:	4a05      	ldr	r2, [pc, #20]	@ (80023a0 <task3_handler+0x20>)
 800238a:	2132      	movs	r1, #50	@ 0x32
 800238c:	4618      	mov	r0, r3
 800238e:	f7fe fc4f 	bl	8000c30 <sniprintf>
		ITM_SendString(buffer);;
 8002392:	1d3b      	adds	r3, r7, #4
 8002394:	4618      	mov	r0, r3
 8002396:	f7ff fe89 	bl	80020ac <ITM_SendString>
		snprintf(buffer, sizeof(buffer), "in task 3 handler\n");
 800239a:	bf00      	nop
 800239c:	e7f3      	b.n	8002386 <task3_handler+0x6>
 800239e:	bf00      	nop
 80023a0:	080025e0 	.word	0x080025e0

080023a4 <task4_handler>:
	}
}

void task4_handler() {
 80023a4:	b580      	push	{r7, lr}
 80023a6:	b08e      	sub	sp, #56	@ 0x38
 80023a8:	af00      	add	r7, sp, #0
char buffer[50]; // global buffer for the printer
	while (1) {
		snprintf(buffer, sizeof(buffer), "in task 4 handler\n");
 80023aa:	1d3b      	adds	r3, r7, #4
 80023ac:	4a05      	ldr	r2, [pc, #20]	@ (80023c4 <task4_handler+0x20>)
 80023ae:	2132      	movs	r1, #50	@ 0x32
 80023b0:	4618      	mov	r0, r3
 80023b2:	f7fe fc3d 	bl	8000c30 <sniprintf>
		ITM_SendString(buffer);
 80023b6:	1d3b      	adds	r3, r7, #4
 80023b8:	4618      	mov	r0, r3
 80023ba:	f7ff fe77 	bl	80020ac <ITM_SendString>
		snprintf(buffer, sizeof(buffer), "in task 4 handler\n");
 80023be:	bf00      	nop
 80023c0:	e7f3      	b.n	80023aa <task4_handler+0x6>
 80023c2:	bf00      	nop
 80023c4:	080025f4 	.word	0x080025f4

080023c8 <HardFault_Handler>:
	}
}

void HardFault_Handler() {
 80023c8:	b580      	push	{r7, lr}
 80023ca:	af00      	add	r7, sp, #0
	printf("exception in hard fault\n");
 80023cc:	4802      	ldr	r0, [pc, #8]	@ (80023d8 <HardFault_Handler+0x10>)
 80023ce:	f7fd ff93 	bl	80002f8 <puts>
	while (1) {
 80023d2:	bf00      	nop
 80023d4:	e7fd      	b.n	80023d2 <HardFault_Handler+0xa>
 80023d6:	bf00      	nop
 80023d8:	08002608 	.word	0x08002608

080023dc <MemManage_Handler>:
	};
}

void MemManage_Handler() {
 80023dc:	b580      	push	{r7, lr}
 80023de:	af00      	add	r7, sp, #0
	printf("exception in MemManage_Handler\n");
 80023e0:	4802      	ldr	r0, [pc, #8]	@ (80023ec <MemManage_Handler+0x10>)
 80023e2:	f7fd ff89 	bl	80002f8 <puts>
	while (1) {
 80023e6:	bf00      	nop
 80023e8:	e7fd      	b.n	80023e6 <MemManage_Handler+0xa>
 80023ea:	bf00      	nop
 80023ec:	08002620 	.word	0x08002620

080023f0 <BusFault_Handler>:
	};
}
void BusFault_Handler() {
 80023f0:	b580      	push	{r7, lr}
 80023f2:	af00      	add	r7, sp, #0
	printf("exception in BusFault_Handlern");
 80023f4:	4802      	ldr	r0, [pc, #8]	@ (8002400 <BusFault_Handler+0x10>)
 80023f6:	f7fe fc73 	bl	8000ce0 <iprintf>
	while (1) {
 80023fa:	bf00      	nop
 80023fc:	e7fd      	b.n	80023fa <BusFault_Handler+0xa>
 80023fe:	bf00      	nop
 8002400:	08002640 	.word	0x08002640

08002404 <_read>:
	_kill(status, -1);
	while (1) {
	} /* Make sure we hang here */
}

__attribute__((weak)) int _read(int file, char *ptr, int len) {
 8002404:	b580      	push	{r7, lr}
 8002406:	b086      	sub	sp, #24
 8002408:	af00      	add	r7, sp, #0
 800240a:	60f8      	str	r0, [r7, #12]
 800240c:	60b9      	str	r1, [r7, #8]
 800240e:	607a      	str	r2, [r7, #4]
	(void) file;
	int DataIdx;

	for (DataIdx = 0; DataIdx < len; DataIdx++) {
 8002410:	2300      	movs	r3, #0
 8002412:	617b      	str	r3, [r7, #20]
 8002414:	e00a      	b.n	800242c <_read+0x28>
		*ptr++ = __io_getchar();
 8002416:	f3af 8000 	nop.w
 800241a:	4601      	mov	r1, r0
 800241c:	68bb      	ldr	r3, [r7, #8]
 800241e:	1c5a      	adds	r2, r3, #1
 8002420:	60ba      	str	r2, [r7, #8]
 8002422:	b2ca      	uxtb	r2, r1
 8002424:	701a      	strb	r2, [r3, #0]
	for (DataIdx = 0; DataIdx < len; DataIdx++) {
 8002426:	697b      	ldr	r3, [r7, #20]
 8002428:	3301      	adds	r3, #1
 800242a:	617b      	str	r3, [r7, #20]
 800242c:	697a      	ldr	r2, [r7, #20]
 800242e:	687b      	ldr	r3, [r7, #4]
 8002430:	429a      	cmp	r2, r3
 8002432:	dbf0      	blt.n	8002416 <_read+0x12>
	}

	return len;
 8002434:	687b      	ldr	r3, [r7, #4]
}
 8002436:	4618      	mov	r0, r3
 8002438:	3718      	adds	r7, #24
 800243a:	46bd      	mov	sp, r7
 800243c:	bd80      	pop	{r7, pc}

0800243e <_write>:

__attribute__((weak)) int _write(int file, char *ptr, int len) {
 800243e:	b580      	push	{r7, lr}
 8002440:	b086      	sub	sp, #24
 8002442:	af00      	add	r7, sp, #0
 8002444:	60f8      	str	r0, [r7, #12]
 8002446:	60b9      	str	r1, [r7, #8]
 8002448:	607a      	str	r2, [r7, #4]
	(void) file;
	int DataIdx;

	for (DataIdx = 0; DataIdx < len; DataIdx++) {
 800244a:	2300      	movs	r3, #0
 800244c:	617b      	str	r3, [r7, #20]
 800244e:	e009      	b.n	8002464 <_write+0x26>
		__io_putchar(*ptr++);
 8002450:	68bb      	ldr	r3, [r7, #8]
 8002452:	1c5a      	adds	r2, r3, #1
 8002454:	60ba      	str	r2, [r7, #8]
 8002456:	781b      	ldrb	r3, [r3, #0]
 8002458:	4618      	mov	r0, r3
 800245a:	f3af 8000 	nop.w
	for (DataIdx = 0; DataIdx < len; DataIdx++) {
 800245e:	697b      	ldr	r3, [r7, #20]
 8002460:	3301      	adds	r3, #1
 8002462:	617b      	str	r3, [r7, #20]
 8002464:	697a      	ldr	r2, [r7, #20]
 8002466:	687b      	ldr	r3, [r7, #4]
 8002468:	429a      	cmp	r2, r3
 800246a:	dbf1      	blt.n	8002450 <_write+0x12>
	}
	return len;
 800246c:	687b      	ldr	r3, [r7, #4]
}
 800246e:	4618      	mov	r0, r3
 8002470:	3718      	adds	r7, #24
 8002472:	46bd      	mov	sp, r7
 8002474:	bd80      	pop	{r7, pc}

08002476 <_close>:

int _close(int file) {
 8002476:	b480      	push	{r7}
 8002478:	b083      	sub	sp, #12
 800247a:	af00      	add	r7, sp, #0
 800247c:	6078      	str	r0, [r7, #4]
	(void) file;
	return -1;
 800247e:	f04f 33ff 	mov.w	r3, #4294967295	@ 0xffffffff
}
 8002482:	4618      	mov	r0, r3
 8002484:	370c      	adds	r7, #12
 8002486:	46bd      	mov	sp, r7
 8002488:	f85d 7b04 	ldr.w	r7, [sp], #4
 800248c:	4770      	bx	lr

0800248e <_fstat>:

int _fstat(int file, struct stat *st) {
 800248e:	b480      	push	{r7}
 8002490:	b083      	sub	sp, #12
 8002492:	af00      	add	r7, sp, #0
 8002494:	6078      	str	r0, [r7, #4]
 8002496:	6039      	str	r1, [r7, #0]
	(void) file;
	st->st_mode = S_IFCHR;
 8002498:	683b      	ldr	r3, [r7, #0]
 800249a:	f44f 5200 	mov.w	r2, #8192	@ 0x2000
 800249e:	605a      	str	r2, [r3, #4]
	return 0;
 80024a0:	2300      	movs	r3, #0
}
 80024a2:	4618      	mov	r0, r3
 80024a4:	370c      	adds	r7, #12
 80024a6:	46bd      	mov	sp, r7
 80024a8:	f85d 7b04 	ldr.w	r7, [sp], #4
 80024ac:	4770      	bx	lr

080024ae <_isatty>:

int _isatty(int file) {
 80024ae:	b480      	push	{r7}
 80024b0:	b083      	sub	sp, #12
 80024b2:	af00      	add	r7, sp, #0
 80024b4:	6078      	str	r0, [r7, #4]
	(void) file;
	return 1;
 80024b6:	2301      	movs	r3, #1
}
 80024b8:	4618      	mov	r0, r3
 80024ba:	370c      	adds	r7, #12
 80024bc:	46bd      	mov	sp, r7
 80024be:	f85d 7b04 	ldr.w	r7, [sp], #4
 80024c2:	4770      	bx	lr

080024c4 <_lseek>:

int _lseek(int file, int ptr, int dir) {
 80024c4:	b480      	push	{r7}
 80024c6:	b085      	sub	sp, #20
 80024c8:	af00      	add	r7, sp, #0
 80024ca:	60f8      	str	r0, [r7, #12]
 80024cc:	60b9      	str	r1, [r7, #8]
 80024ce:	607a      	str	r2, [r7, #4]
	(void) file;
	(void) ptr;
	(void) dir;
	return 0;
 80024d0:	2300      	movs	r3, #0
}
 80024d2:	4618      	mov	r0, r3
 80024d4:	3714      	adds	r7, #20
 80024d6:	46bd      	mov	sp, r7
 80024d8:	f85d 7b04 	ldr.w	r7, [sp], #4
 80024dc:	4770      	bx	lr
	...

080024e0 <_sbrk>:
 * reserved size, please increase the '_Min_Stack_Size'.
 *
 * @param incr Memory size
 * @return Pointer to allocated memory
 */
void* _sbrk(ptrdiff_t incr) {
 80024e0:	b580      	push	{r7, lr}
 80024e2:	b086      	sub	sp, #24
 80024e4:	af00      	add	r7, sp, #0
 80024e6:	6078      	str	r0, [r7, #4]
	extern uint8_t _end; /* Symbol defined in the linker script */
	extern uint8_t _estack; /* Symbol defined in the linker script */
	extern uint32_t _Min_Stack_Size; /* Symbol defined in the linker script */
	const uint32_t stack_limit = (uint32_t) &_estack
 80024e8:	4a14      	ldr	r2, [pc, #80]	@ (800253c <_sbrk+0x5c>)
			- (uint32_t) &_Min_Stack_Size;
 80024ea:	4b15      	ldr	r3, [pc, #84]	@ (8002540 <_sbrk+0x60>)
	const uint32_t stack_limit = (uint32_t) &_estack
 80024ec:	1ad3      	subs	r3, r2, r3
 80024ee:	617b      	str	r3, [r7, #20]
	const uint8_t *max_heap = (uint8_t*) stack_limit;
 80024f0:	697b      	ldr	r3, [r7, #20]
 80024f2:	613b      	str	r3, [r7, #16]
	uint8_t *prev_heap_end;

	/* Initialize heap end at first call */
	if (NULL == __sbrk_heap_end) {
 80024f4:	4b13      	ldr	r3, [pc, #76]	@ (8002544 <_sbrk+0x64>)
 80024f6:	681b      	ldr	r3, [r3, #0]
 80024f8:	2b00      	cmp	r3, #0
 80024fa:	d102      	bne.n	8002502 <_sbrk+0x22>
		__sbrk_heap_end = &_end;
 80024fc:	4b11      	ldr	r3, [pc, #68]	@ (8002544 <_sbrk+0x64>)
 80024fe:	4a12      	ldr	r2, [pc, #72]	@ (8002548 <_sbrk+0x68>)
 8002500:	601a      	str	r2, [r3, #0]
	}

	/* Protect heap from growing into the reserved MSP stack */
	if (__sbrk_heap_end + incr > max_heap) {
 8002502:	4b10      	ldr	r3, [pc, #64]	@ (8002544 <_sbrk+0x64>)
 8002504:	681a      	ldr	r2, [r3, #0]
 8002506:	687b      	ldr	r3, [r7, #4]
 8002508:	4413      	add	r3, r2
 800250a:	693a      	ldr	r2, [r7, #16]
 800250c:	429a      	cmp	r2, r3
 800250e:	d207      	bcs.n	8002520 <_sbrk+0x40>
		errno = ENOMEM;
 8002510:	f7fe f932 	bl	8000778 <__errno>
 8002514:	4603      	mov	r3, r0
 8002516:	220c      	movs	r2, #12
 8002518:	601a      	str	r2, [r3, #0]
		return (void*) -1;
 800251a:	f04f 33ff 	mov.w	r3, #4294967295	@ 0xffffffff
 800251e:	e009      	b.n	8002534 <_sbrk+0x54>
	}

	prev_heap_end = __sbrk_heap_end;
 8002520:	4b08      	ldr	r3, [pc, #32]	@ (8002544 <_sbrk+0x64>)
 8002522:	681b      	ldr	r3, [r3, #0]
 8002524:	60fb      	str	r3, [r7, #12]
	__sbrk_heap_end += incr;
 8002526:	4b07      	ldr	r3, [pc, #28]	@ (8002544 <_sbrk+0x64>)
 8002528:	681a      	ldr	r2, [r3, #0]
 800252a:	687b      	ldr	r3, [r7, #4]
 800252c:	4413      	add	r3, r2
 800252e:	4a05      	ldr	r2, [pc, #20]	@ (8002544 <_sbrk+0x64>)
 8002530:	6013      	str	r3, [r2, #0]

	return (void*) prev_heap_end;
 8002532:	68fb      	ldr	r3, [r7, #12]
}
 8002534:	4618      	mov	r0, r3
 8002536:	3718      	adds	r7, #24
 8002538:	46bd      	mov	sp, r7
 800253a:	bd80      	pop	{r7, pc}
 800253c:	20020000 	.word	0x20020000
 8002540:	00000400 	.word	0x00000400
 8002544:	200001e4 	.word	0x200001e4
 8002548:	200001e8 	.word	0x200001e8

0800254c <Reset_Handler>:

  .section .text.Reset_Handler
  .weak Reset_Handler
  .type Reset_Handler, %function
Reset_Handler:
  ldr   r0, =_estack
 800254c:	480d      	ldr	r0, [pc, #52]	@ (8002584 <LoopForever+0x2>)
  mov   sp, r0          /* set stack pointer */
 800254e:	4685      	mov	sp, r0
/* Call the clock system initialization function.*/
  bl  SystemInit
 8002550:	f3af 8000 	nop.w

/* Copy the data segment initializers from flash to SRAM */
  ldr r0, =_sdata
 8002554:	480c      	ldr	r0, [pc, #48]	@ (8002588 <LoopForever+0x6>)
  ldr r1, =_edata
 8002556:	490d      	ldr	r1, [pc, #52]	@ (800258c <LoopForever+0xa>)
  ldr r2, =_sidata
 8002558:	4a0d      	ldr	r2, [pc, #52]	@ (8002590 <LoopForever+0xe>)
  movs r3, #0
 800255a:	2300      	movs	r3, #0
  b LoopCopyDataInit
 800255c:	e002      	b.n	8002564 <LoopCopyDataInit>

0800255e <CopyDataInit>:

CopyDataInit:
  ldr r4, [r2, r3]
 800255e:	58d4      	ldr	r4, [r2, r3]
  str r4, [r0, r3]
 8002560:	50c4      	str	r4, [r0, r3]
  adds r3, r3, #4
 8002562:	3304      	adds	r3, #4

08002564 <LoopCopyDataInit>:

LoopCopyDataInit:
  adds r4, r0, r3
 8002564:	18c4      	adds	r4, r0, r3
  cmp r4, r1
 8002566:	428c      	cmp	r4, r1
  bcc CopyDataInit
 8002568:	d3f9      	bcc.n	800255e <CopyDataInit>

/* Zero fill the bss segment. */
  ldr r2, =_sbss
 800256a:	4a0a      	ldr	r2, [pc, #40]	@ (8002594 <LoopForever+0x12>)
  ldr r4, =_ebss
 800256c:	4c0a      	ldr	r4, [pc, #40]	@ (8002598 <LoopForever+0x16>)
  movs r3, #0
 800256e:	2300      	movs	r3, #0
  b LoopFillZerobss
 8002570:	e001      	b.n	8002576 <LoopFillZerobss>

08002572 <FillZerobss>:

FillZerobss:
  str  r3, [r2]
 8002572:	6013      	str	r3, [r2, #0]
  adds r2, r2, #4
 8002574:	3204      	adds	r2, #4

08002576 <LoopFillZerobss>:

LoopFillZerobss:
  cmp r2, r4
 8002576:	42a2      	cmp	r2, r4
  bcc FillZerobss
 8002578:	d3fb      	bcc.n	8002572 <FillZerobss>

/* Call static constructors */
  bl __libc_init_array
 800257a:	f7fd fe4d 	bl	8000218 <__libc_init_array>
/* Call the application's entry point.*/
  bl main
 800257e:	f7ff fdab 	bl	80020d8 <main>

08002582 <LoopForever>:

LoopForever:
  b LoopForever
 8002582:	e7fe      	b.n	8002582 <LoopForever>
  ldr   r0, =_estack
 8002584:	20020000 	.word	0x20020000
  ldr r0, =_sdata
 8002588:	20000000 	.word	0x20000000
  ldr r1, =_edata
 800258c:	2000006c 	.word	0x2000006c
  ldr r2, =_sidata
 8002590:	080026ac 	.word	0x080026ac
  ldr r2, =_sbss
 8002594:	2000006c 	.word	0x2000006c
  ldr r4, =_ebss
 8002598:	200001e8 	.word	0x200001e8

0800259c <ADC_IRQHandler>:
 * @retval : None
*/
  .section .text.Default_Handler,"ax",%progbits
Default_Handler:
Infinite_Loop:
  b Infinite_Loop
 800259c:	e7fe      	b.n	800259c <ADC_IRQHandler>
	...

080025a0 <_init>:
 80025a0:	b5f8      	push	{r3, r4, r5, r6, r7, lr}
 80025a2:	bf00      	nop
 80025a4:	bcf8      	pop	{r3, r4, r5, r6, r7}
 80025a6:	bc08      	pop	{r3}
 80025a8:	469e      	mov	lr, r3
 80025aa:	4770      	bx	lr

080025ac <_fini>:
 80025ac:	b5f8      	push	{r3, r4, r5, r6, r7, lr}
 80025ae:	bf00      	nop
 80025b0:	bcf8      	pop	{r3, r4, r5, r6, r7}
 80025b2:	bc08      	pop	{r3}
 80025b4:	469e      	mov	lr, r3
 80025b6:	4770      	bx	lr
